ARM GAS  C:\Users\214016~1\AppData\Local\Temp\ccqFnapc.s 			page 1


   1              		.syntax unified
   2              		.cpu cortex-m3
   3              		.fpu softvfp
   4              		.eabi_attribute 20, 1
   5              		.eabi_attribute 21, 1
   6              		.eabi_attribute 23, 3
   7              		.eabi_attribute 24, 1
   8              		.eabi_attribute 25, 1
   9              		.eabi_attribute 26, 1
  10              		.eabi_attribute 30, 6
  11              		.eabi_attribute 34, 1
  12              		.eabi_attribute 18, 4
  13              		.thumb
  14              		.file	"Input_SW_ShiftReg_PM.c"
  15              		.text
  16              	.Ltext0:
  17              		.cfi_sections	.debug_frame
  18              		.bss
  19              		.align	2
  20              	Input_SW_ShiftReg_backup:
  21 0000 00000000 		.space	12
  21      00000000 
  21      00000000 
  22              		.section	.text.Input_SW_ShiftReg_SaveConfig,"ax",%progbits
  23              		.align	2
  24              		.global	Input_SW_ShiftReg_SaveConfig
  25              		.thumb
  26              		.thumb_func
  27              		.type	Input_SW_ShiftReg_SaveConfig, %function
  28              	Input_SW_ShiftReg_SaveConfig:
  29              	.LFB0:
  30              		.file 1 "Generated_Source\\PSoC5\\Input_SW_ShiftReg_PM.c"
   1:Generated_Source\PSoC5/Input_SW_ShiftReg_PM.c **** /*******************************************************************************
   2:Generated_Source\PSoC5/Input_SW_ShiftReg_PM.c **** * File Name: Input_SW_ShiftReg_PM.c
   3:Generated_Source\PSoC5/Input_SW_ShiftReg_PM.c **** * Version 2.30
   4:Generated_Source\PSoC5/Input_SW_ShiftReg_PM.c **** *
   5:Generated_Source\PSoC5/Input_SW_ShiftReg_PM.c **** * Description:
   6:Generated_Source\PSoC5/Input_SW_ShiftReg_PM.c **** *  This file provides the API source code for sleep mode support for Shift
   7:Generated_Source\PSoC5/Input_SW_ShiftReg_PM.c **** *  Register component.
   8:Generated_Source\PSoC5/Input_SW_ShiftReg_PM.c **** *
   9:Generated_Source\PSoC5/Input_SW_ShiftReg_PM.c **** * Note:
  10:Generated_Source\PSoC5/Input_SW_ShiftReg_PM.c **** *
  11:Generated_Source\PSoC5/Input_SW_ShiftReg_PM.c **** ********************************************************************************
  12:Generated_Source\PSoC5/Input_SW_ShiftReg_PM.c **** * Copyright 2008-2013, Cypress Semiconductor Corporation.  All rights reserved.
  13:Generated_Source\PSoC5/Input_SW_ShiftReg_PM.c **** * You may use this file only in accordance with the license, terms, conditions,
  14:Generated_Source\PSoC5/Input_SW_ShiftReg_PM.c **** * disclaimers, and limitations in the end user license agreement accompanying
  15:Generated_Source\PSoC5/Input_SW_ShiftReg_PM.c **** * the software package with which this file was provided.
  16:Generated_Source\PSoC5/Input_SW_ShiftReg_PM.c **** *******************************************************************************/
  17:Generated_Source\PSoC5/Input_SW_ShiftReg_PM.c **** 
  18:Generated_Source\PSoC5/Input_SW_ShiftReg_PM.c **** #include "Input_SW_ShiftReg.h"
  19:Generated_Source\PSoC5/Input_SW_ShiftReg_PM.c **** 
  20:Generated_Source\PSoC5/Input_SW_ShiftReg_PM.c **** static Input_SW_ShiftReg_BACKUP_STRUCT Input_SW_ShiftReg_backup =
  21:Generated_Source\PSoC5/Input_SW_ShiftReg_PM.c **** {
  22:Generated_Source\PSoC5/Input_SW_ShiftReg_PM.c ****     Input_SW_ShiftReg_DISABLED,
  23:Generated_Source\PSoC5/Input_SW_ShiftReg_PM.c **** 
  24:Generated_Source\PSoC5/Input_SW_ShiftReg_PM.c ****     ((uint32) Input_SW_ShiftReg_DEFAULT_A0),
  25:Generated_Source\PSoC5/Input_SW_ShiftReg_PM.c ****     ((uint32) Input_SW_ShiftReg_DEFAULT_A1),
ARM GAS  C:\Users\214016~1\AppData\Local\Temp\ccqFnapc.s 			page 2


  26:Generated_Source\PSoC5/Input_SW_ShiftReg_PM.c **** 
  27:Generated_Source\PSoC5/Input_SW_ShiftReg_PM.c ****     #if(CY_UDB_V0)
  28:Generated_Source\PSoC5/Input_SW_ShiftReg_PM.c ****         ((uint32) Input_SW_ShiftReg_INT_SRC),
  29:Generated_Source\PSoC5/Input_SW_ShiftReg_PM.c ****     #endif /* (CY_UDB_V0) */
  30:Generated_Source\PSoC5/Input_SW_ShiftReg_PM.c **** };
  31:Generated_Source\PSoC5/Input_SW_ShiftReg_PM.c **** 
  32:Generated_Source\PSoC5/Input_SW_ShiftReg_PM.c **** 
  33:Generated_Source\PSoC5/Input_SW_ShiftReg_PM.c **** /*******************************************************************************
  34:Generated_Source\PSoC5/Input_SW_ShiftReg_PM.c **** * Function Name: Input_SW_ShiftReg_SaveConfig
  35:Generated_Source\PSoC5/Input_SW_ShiftReg_PM.c **** ********************************************************************************
  36:Generated_Source\PSoC5/Input_SW_ShiftReg_PM.c **** *
  37:Generated_Source\PSoC5/Input_SW_ShiftReg_PM.c **** * Summary:
  38:Generated_Source\PSoC5/Input_SW_ShiftReg_PM.c **** *  Saves Shift Register configuration.
  39:Generated_Source\PSoC5/Input_SW_ShiftReg_PM.c **** *
  40:Generated_Source\PSoC5/Input_SW_ShiftReg_PM.c **** * Parameters:
  41:Generated_Source\PSoC5/Input_SW_ShiftReg_PM.c **** *  None.
  42:Generated_Source\PSoC5/Input_SW_ShiftReg_PM.c **** *
  43:Generated_Source\PSoC5/Input_SW_ShiftReg_PM.c **** * Return:
  44:Generated_Source\PSoC5/Input_SW_ShiftReg_PM.c **** *  None.
  45:Generated_Source\PSoC5/Input_SW_ShiftReg_PM.c **** *
  46:Generated_Source\PSoC5/Input_SW_ShiftReg_PM.c **** * Reentrant:
  47:Generated_Source\PSoC5/Input_SW_ShiftReg_PM.c **** *  No.
  48:Generated_Source\PSoC5/Input_SW_ShiftReg_PM.c **** *
  49:Generated_Source\PSoC5/Input_SW_ShiftReg_PM.c **** *******************************************************************************/
  50:Generated_Source\PSoC5/Input_SW_ShiftReg_PM.c **** void Input_SW_ShiftReg_SaveConfig(void) 
  51:Generated_Source\PSoC5/Input_SW_ShiftReg_PM.c **** {
  31              		.loc 1 51 0
  32              		.cfi_startproc
  33              		@ args = 0, pretend = 0, frame = 0
  34              		@ frame_needed = 1, uses_anonymous_args = 0
  35              		@ link register save eliminated.
  36 0000 80B4     		push	{r7}
  37              		.cfi_def_cfa_offset 4
  38              		.cfi_offset 7, -4
  39 0002 00AF     		add	r7, sp, #0
  40              		.cfi_def_cfa_register 7
  52:Generated_Source\PSoC5/Input_SW_ShiftReg_PM.c ****     /* Store working registers A0 and A1 */
  53:Generated_Source\PSoC5/Input_SW_ShiftReg_PM.c ****     Input_SW_ShiftReg_backup.saveSrA0Reg   = CY_GET_REG32(Input_SW_ShiftReg_SHIFT_REG_LSB_PTR);
  41              		.loc 1 53 0
  42 0004 054B     		ldr	r3, .L2
  43 0006 1B68     		ldr	r3, [r3]
  44 0008 054A     		ldr	r2, .L2+4
  45 000a 5360     		str	r3, [r2, #4]
  54:Generated_Source\PSoC5/Input_SW_ShiftReg_PM.c ****     Input_SW_ShiftReg_backup.saveSrA1Reg   = CY_GET_REG32(Input_SW_ShiftReg_SHIFT_REG_VALUE_LSB_PTR
  46              		.loc 1 54 0
  47 000c 054B     		ldr	r3, .L2+8
  48 000e 1B68     		ldr	r3, [r3]
  49 0010 034A     		ldr	r2, .L2+4
  50 0012 9360     		str	r3, [r2, #8]
  55:Generated_Source\PSoC5/Input_SW_ShiftReg_PM.c **** 
  56:Generated_Source\PSoC5/Input_SW_ShiftReg_PM.c ****     #if(CY_UDB_V0)
  57:Generated_Source\PSoC5/Input_SW_ShiftReg_PM.c ****         Input_SW_ShiftReg_backup.saveSrIntMask = Input_SW_ShiftReg_SR_STATUS_MASK;
  58:Generated_Source\PSoC5/Input_SW_ShiftReg_PM.c ****     #endif /* (CY_UDB_V0) */
  59:Generated_Source\PSoC5/Input_SW_ShiftReg_PM.c **** }
  51              		.loc 1 59 0
  52 0014 BD46     		mov	sp, r7
  53              		.cfi_def_cfa_register 13
ARM GAS  C:\Users\214016~1\AppData\Local\Temp\ccqFnapc.s 			page 3


  54              		@ sp needed
  55 0016 5DF8047B 		ldr	r7, [sp], #4
  56              		.cfi_restore 7
  57              		.cfi_def_cfa_offset 0
  58 001a 7047     		bx	lr
  59              	.L3:
  60              		.align	2
  61              	.L2:
  62 001c 0A640040 		.word	1073767434
  63 0020 00000000 		.word	Input_SW_ShiftReg_backup
  64 0024 1A640040 		.word	1073767450
  65              		.cfi_endproc
  66              	.LFE0:
  67              		.size	Input_SW_ShiftReg_SaveConfig, .-Input_SW_ShiftReg_SaveConfig
  68              		.section	.text.Input_SW_ShiftReg_RestoreConfig,"ax",%progbits
  69              		.align	2
  70              		.global	Input_SW_ShiftReg_RestoreConfig
  71              		.thumb
  72              		.thumb_func
  73              		.type	Input_SW_ShiftReg_RestoreConfig, %function
  74              	Input_SW_ShiftReg_RestoreConfig:
  75              	.LFB1:
  60:Generated_Source\PSoC5/Input_SW_ShiftReg_PM.c **** 
  61:Generated_Source\PSoC5/Input_SW_ShiftReg_PM.c **** 
  62:Generated_Source\PSoC5/Input_SW_ShiftReg_PM.c **** /*******************************************************************************
  63:Generated_Source\PSoC5/Input_SW_ShiftReg_PM.c **** * Function Name: Input_SW_ShiftReg_RestoreConfig
  64:Generated_Source\PSoC5/Input_SW_ShiftReg_PM.c **** ********************************************************************************
  65:Generated_Source\PSoC5/Input_SW_ShiftReg_PM.c **** *
  66:Generated_Source\PSoC5/Input_SW_ShiftReg_PM.c **** * Summary:
  67:Generated_Source\PSoC5/Input_SW_ShiftReg_PM.c **** *  Restores Shift Register configuration.
  68:Generated_Source\PSoC5/Input_SW_ShiftReg_PM.c **** *
  69:Generated_Source\PSoC5/Input_SW_ShiftReg_PM.c **** * Parameters:
  70:Generated_Source\PSoC5/Input_SW_ShiftReg_PM.c **** *  None.
  71:Generated_Source\PSoC5/Input_SW_ShiftReg_PM.c **** *
  72:Generated_Source\PSoC5/Input_SW_ShiftReg_PM.c **** * Return:
  73:Generated_Source\PSoC5/Input_SW_ShiftReg_PM.c **** *  None.
  74:Generated_Source\PSoC5/Input_SW_ShiftReg_PM.c **** *
  75:Generated_Source\PSoC5/Input_SW_ShiftReg_PM.c **** *******************************************************************************/
  76:Generated_Source\PSoC5/Input_SW_ShiftReg_PM.c **** void Input_SW_ShiftReg_RestoreConfig(void) 
  77:Generated_Source\PSoC5/Input_SW_ShiftReg_PM.c **** {
  76              		.loc 1 77 0
  77              		.cfi_startproc
  78              		@ args = 0, pretend = 0, frame = 0
  79              		@ frame_needed = 1, uses_anonymous_args = 0
  80              		@ link register save eliminated.
  81 0000 80B4     		push	{r7}
  82              		.cfi_def_cfa_offset 4
  83              		.cfi_offset 7, -4
  84 0002 00AF     		add	r7, sp, #0
  85              		.cfi_def_cfa_register 7
  78:Generated_Source\PSoC5/Input_SW_ShiftReg_PM.c ****     /* Restore working registers A0 and A1 */
  79:Generated_Source\PSoC5/Input_SW_ShiftReg_PM.c ****     CY_SET_REG32(Input_SW_ShiftReg_SHIFT_REG_LSB_PTR, Input_SW_ShiftReg_backup.saveSrA0Reg);
  86              		.loc 1 79 0
  87 0004 054A     		ldr	r2, .L5
  88 0006 064B     		ldr	r3, .L5+4
  89 0008 5B68     		ldr	r3, [r3, #4]
  90 000a 1360     		str	r3, [r2]
ARM GAS  C:\Users\214016~1\AppData\Local\Temp\ccqFnapc.s 			page 4


  80:Generated_Source\PSoC5/Input_SW_ShiftReg_PM.c ****     CY_SET_REG32(Input_SW_ShiftReg_SHIFT_REG_VALUE_LSB_PTR, Input_SW_ShiftReg_backup.saveSrA1Reg);
  91              		.loc 1 80 0
  92 000c 054A     		ldr	r2, .L5+8
  93 000e 044B     		ldr	r3, .L5+4
  94 0010 9B68     		ldr	r3, [r3, #8]
  95 0012 1360     		str	r3, [r2]
  81:Generated_Source\PSoC5/Input_SW_ShiftReg_PM.c **** 
  82:Generated_Source\PSoC5/Input_SW_ShiftReg_PM.c ****     #if(CY_UDB_V0)
  83:Generated_Source\PSoC5/Input_SW_ShiftReg_PM.c ****         Input_SW_ShiftReg_SR_STATUS_MASK = ((uint8) Input_SW_ShiftReg_backup.saveSrIntMask);
  84:Generated_Source\PSoC5/Input_SW_ShiftReg_PM.c ****     #endif /* (CY_UDB_V0) */
  85:Generated_Source\PSoC5/Input_SW_ShiftReg_PM.c **** }
  96              		.loc 1 85 0
  97 0014 BD46     		mov	sp, r7
  98              		.cfi_def_cfa_register 13
  99              		@ sp needed
 100 0016 5DF8047B 		ldr	r7, [sp], #4
 101              		.cfi_restore 7
 102              		.cfi_def_cfa_offset 0
 103 001a 7047     		bx	lr
 104              	.L6:
 105              		.align	2
 106              	.L5:
 107 001c 0A640040 		.word	1073767434
 108 0020 00000000 		.word	Input_SW_ShiftReg_backup
 109 0024 1A640040 		.word	1073767450
 110              		.cfi_endproc
 111              	.LFE1:
 112              		.size	Input_SW_ShiftReg_RestoreConfig, .-Input_SW_ShiftReg_RestoreConfig
 113              		.section	.text.Input_SW_ShiftReg_Sleep,"ax",%progbits
 114              		.align	2
 115              		.global	Input_SW_ShiftReg_Sleep
 116              		.thumb
 117              		.thumb_func
 118              		.type	Input_SW_ShiftReg_Sleep, %function
 119              	Input_SW_ShiftReg_Sleep:
 120              	.LFB2:
  86:Generated_Source\PSoC5/Input_SW_ShiftReg_PM.c **** 
  87:Generated_Source\PSoC5/Input_SW_ShiftReg_PM.c **** 
  88:Generated_Source\PSoC5/Input_SW_ShiftReg_PM.c **** /*******************************************************************************
  89:Generated_Source\PSoC5/Input_SW_ShiftReg_PM.c **** * Function Name: Input_SW_ShiftReg_Sleep
  90:Generated_Source\PSoC5/Input_SW_ShiftReg_PM.c **** ********************************************************************************
  91:Generated_Source\PSoC5/Input_SW_ShiftReg_PM.c **** *
  92:Generated_Source\PSoC5/Input_SW_ShiftReg_PM.c **** * Summary:
  93:Generated_Source\PSoC5/Input_SW_ShiftReg_PM.c **** *  Prepare the component to enter a Sleep mode.
  94:Generated_Source\PSoC5/Input_SW_ShiftReg_PM.c **** *
  95:Generated_Source\PSoC5/Input_SW_ShiftReg_PM.c **** * Parameters:
  96:Generated_Source\PSoC5/Input_SW_ShiftReg_PM.c **** *  None.
  97:Generated_Source\PSoC5/Input_SW_ShiftReg_PM.c **** *
  98:Generated_Source\PSoC5/Input_SW_ShiftReg_PM.c **** * Return:
  99:Generated_Source\PSoC5/Input_SW_ShiftReg_PM.c **** *  None.
 100:Generated_Source\PSoC5/Input_SW_ShiftReg_PM.c **** *
 101:Generated_Source\PSoC5/Input_SW_ShiftReg_PM.c **** * Reentrant:
 102:Generated_Source\PSoC5/Input_SW_ShiftReg_PM.c **** *  No.
 103:Generated_Source\PSoC5/Input_SW_ShiftReg_PM.c **** *
 104:Generated_Source\PSoC5/Input_SW_ShiftReg_PM.c **** *******************************************************************************/
 105:Generated_Source\PSoC5/Input_SW_ShiftReg_PM.c **** void Input_SW_ShiftReg_Sleep(void) 
 106:Generated_Source\PSoC5/Input_SW_ShiftReg_PM.c **** {
ARM GAS  C:\Users\214016~1\AppData\Local\Temp\ccqFnapc.s 			page 5


 121              		.loc 1 106 0
 122              		.cfi_startproc
 123              		@ args = 0, pretend = 0, frame = 0
 124              		@ frame_needed = 1, uses_anonymous_args = 0
 125 0000 80B5     		push	{r7, lr}
 126              		.cfi_def_cfa_offset 8
 127              		.cfi_offset 7, -8
 128              		.cfi_offset 14, -4
 129 0002 00AF     		add	r7, sp, #0
 130              		.cfi_def_cfa_register 7
 107:Generated_Source\PSoC5/Input_SW_ShiftReg_PM.c ****     Input_SW_ShiftReg_backup.enableState = ((uint8) Input_SW_ShiftReg_IS_ENABLED);
 131              		.loc 1 107 0
 132 0004 084B     		ldr	r3, .L8
 133 0006 1B78     		ldrb	r3, [r3]
 134 0008 DBB2     		uxtb	r3, r3
 135 000a 03F00103 		and	r3, r3, #1
 136 000e 002B     		cmp	r3, #0
 137 0010 14BF     		ite	ne
 138 0012 0123     		movne	r3, #1
 139 0014 0023     		moveq	r3, #0
 140 0016 DBB2     		uxtb	r3, r3
 141 0018 1A46     		mov	r2, r3
 142 001a 044B     		ldr	r3, .L8+4
 143 001c 1A70     		strb	r2, [r3]
 108:Generated_Source\PSoC5/Input_SW_ShiftReg_PM.c **** 
 109:Generated_Source\PSoC5/Input_SW_ShiftReg_PM.c ****     Input_SW_ShiftReg_Stop();
 144              		.loc 1 109 0
 145 001e FFF7FEFF 		bl	Input_SW_ShiftReg_Stop
 110:Generated_Source\PSoC5/Input_SW_ShiftReg_PM.c ****     Input_SW_ShiftReg_SaveConfig();
 146              		.loc 1 110 0
 147 0022 FFF7FEFF 		bl	Input_SW_ShiftReg_SaveConfig
 111:Generated_Source\PSoC5/Input_SW_ShiftReg_PM.c **** }
 148              		.loc 1 111 0
 149 0026 80BD     		pop	{r7, pc}
 150              	.L9:
 151              		.align	2
 152              	.L8:
 153 0028 7E640040 		.word	1073767550
 154 002c 00000000 		.word	Input_SW_ShiftReg_backup
 155              		.cfi_endproc
 156              	.LFE2:
 157              		.size	Input_SW_ShiftReg_Sleep, .-Input_SW_ShiftReg_Sleep
 158              		.section	.text.Input_SW_ShiftReg_Wakeup,"ax",%progbits
 159              		.align	2
 160              		.global	Input_SW_ShiftReg_Wakeup
 161              		.thumb
 162              		.thumb_func
 163              		.type	Input_SW_ShiftReg_Wakeup, %function
 164              	Input_SW_ShiftReg_Wakeup:
 165              	.LFB3:
 112:Generated_Source\PSoC5/Input_SW_ShiftReg_PM.c **** 
 113:Generated_Source\PSoC5/Input_SW_ShiftReg_PM.c **** 
 114:Generated_Source\PSoC5/Input_SW_ShiftReg_PM.c **** /*******************************************************************************
 115:Generated_Source\PSoC5/Input_SW_ShiftReg_PM.c **** * Function Name: Input_SW_ShiftReg_Wakeup
 116:Generated_Source\PSoC5/Input_SW_ShiftReg_PM.c **** ********************************************************************************
 117:Generated_Source\PSoC5/Input_SW_ShiftReg_PM.c **** *
 118:Generated_Source\PSoC5/Input_SW_ShiftReg_PM.c **** * Summary:
ARM GAS  C:\Users\214016~1\AppData\Local\Temp\ccqFnapc.s 			page 6


 119:Generated_Source\PSoC5/Input_SW_ShiftReg_PM.c **** *  Restores and enables the user configuration.
 120:Generated_Source\PSoC5/Input_SW_ShiftReg_PM.c **** *
 121:Generated_Source\PSoC5/Input_SW_ShiftReg_PM.c **** * Parameters:
 122:Generated_Source\PSoC5/Input_SW_ShiftReg_PM.c **** *  None.
 123:Generated_Source\PSoC5/Input_SW_ShiftReg_PM.c **** *
 124:Generated_Source\PSoC5/Input_SW_ShiftReg_PM.c **** * Return:
 125:Generated_Source\PSoC5/Input_SW_ShiftReg_PM.c **** *  None.
 126:Generated_Source\PSoC5/Input_SW_ShiftReg_PM.c **** *
 127:Generated_Source\PSoC5/Input_SW_ShiftReg_PM.c **** *******************************************************************************/
 128:Generated_Source\PSoC5/Input_SW_ShiftReg_PM.c **** void Input_SW_ShiftReg_Wakeup(void) 
 129:Generated_Source\PSoC5/Input_SW_ShiftReg_PM.c **** {
 166              		.loc 1 129 0
 167              		.cfi_startproc
 168              		@ args = 0, pretend = 0, frame = 0
 169              		@ frame_needed = 1, uses_anonymous_args = 0
 170 0000 80B5     		push	{r7, lr}
 171              		.cfi_def_cfa_offset 8
 172              		.cfi_offset 7, -8
 173              		.cfi_offset 14, -4
 174 0002 00AF     		add	r7, sp, #0
 175              		.cfi_def_cfa_register 7
 130:Generated_Source\PSoC5/Input_SW_ShiftReg_PM.c ****     Input_SW_ShiftReg_RestoreConfig();
 176              		.loc 1 130 0
 177 0004 FFF7FEFF 		bl	Input_SW_ShiftReg_RestoreConfig
 131:Generated_Source\PSoC5/Input_SW_ShiftReg_PM.c **** 
 132:Generated_Source\PSoC5/Input_SW_ShiftReg_PM.c ****     if(0u != Input_SW_ShiftReg_backup.enableState)
 178              		.loc 1 132 0
 179 0008 034B     		ldr	r3, .L12
 180 000a 1B78     		ldrb	r3, [r3]	@ zero_extendqisi2
 181 000c 002B     		cmp	r3, #0
 182 000e 01D0     		beq	.L10
 133:Generated_Source\PSoC5/Input_SW_ShiftReg_PM.c ****     {
 134:Generated_Source\PSoC5/Input_SW_ShiftReg_PM.c ****         Input_SW_ShiftReg_Enable();
 183              		.loc 1 134 0
 184 0010 FFF7FEFF 		bl	Input_SW_ShiftReg_Enable
 185              	.L10:
 135:Generated_Source\PSoC5/Input_SW_ShiftReg_PM.c ****     }
 136:Generated_Source\PSoC5/Input_SW_ShiftReg_PM.c **** }
 186              		.loc 1 136 0
 187 0014 80BD     		pop	{r7, pc}
 188              	.L13:
 189 0016 00BF     		.align	2
 190              	.L12:
 191 0018 00000000 		.word	Input_SW_ShiftReg_backup
 192              		.cfi_endproc
 193              	.LFE3:
 194              		.size	Input_SW_ShiftReg_Wakeup, .-Input_SW_ShiftReg_Wakeup
 195              		.text
 196              	.Letext0:
 197              		.file 2 "Generated_Source\\PSoC5\\cytypes.h"
 198              		.file 3 "Generated_Source\\PSoC5\\Input_SW_ShiftReg.h"