ARM GAS  C:\Users\214016~1\AppData\Local\Temp\ccpUOjiz.s 			page 1


   1              		.syntax unified
   2              		.cpu cortex-m3
   3              		.fpu softvfp
   4              		.eabi_attribute 20, 1
   5              		.eabi_attribute 21, 1
   6              		.eabi_attribute 23, 3
   7              		.eabi_attribute 24, 1
   8              		.eabi_attribute 25, 1
   9              		.eabi_attribute 26, 1
  10              		.eabi_attribute 30, 6
  11              		.eabi_attribute 34, 1
  12              		.eabi_attribute 18, 4
  13              		.thumb
  14              		.file	"USB.c"
  15              		.text
  16              	.Ltext0:
  17              		.cfi_sections	.debug_frame
  18              		.global	USB_initVar
  19              		.bss
  20              		.type	USB_initVar, %object
  21              		.size	USB_initVar, 1
  22              	USB_initVar:
  23 0000 00       		.space	1
  24              		.section	.text.USB_Start,"ax",%progbits
  25              		.align	2
  26              		.global	USB_Start
  27              		.thumb
  28              		.thumb_func
  29              		.type	USB_Start, %function
  30              	USB_Start:
  31              	.LFB0:
  32              		.file 1 "Generated_Source\\PSoC5\\USB.c"
   1:Generated_Source\PSoC5/USB.c **** /***************************************************************************//**
   2:Generated_Source\PSoC5/USB.c **** * \file USB.c
   3:Generated_Source\PSoC5/USB.c **** * \version 3.10
   4:Generated_Source\PSoC5/USB.c **** *
   5:Generated_Source\PSoC5/USB.c **** * \brief
   6:Generated_Source\PSoC5/USB.c **** *  This file contains the global USBFS API functions.
   7:Generated_Source\PSoC5/USB.c **** *
   8:Generated_Source\PSoC5/USB.c **** * Note:
   9:Generated_Source\PSoC5/USB.c **** *  Many of the functions use an endpoint number. SRAM arrays are sized with 9
  10:Generated_Source\PSoC5/USB.c **** *  elements, so they are indexed directly by epNumber.  The SIE and ARB
  11:Generated_Source\PSoC5/USB.c **** *  registers are indexed by variations of epNumber - 1.
  12:Generated_Source\PSoC5/USB.c **** *
  13:Generated_Source\PSoC5/USB.c **** ********************************************************************************
  14:Generated_Source\PSoC5/USB.c **** * \copyright
  15:Generated_Source\PSoC5/USB.c **** * Copyright 2008-2016, Cypress Semiconductor Corporation.  All rights reserved.
  16:Generated_Source\PSoC5/USB.c **** * You may use this file only in accordance with the license, terms, conditions,
  17:Generated_Source\PSoC5/USB.c **** * disclaimers, and limitations in the end user license agreement accompanying
  18:Generated_Source\PSoC5/USB.c **** * the software package with which this file was provided.
  19:Generated_Source\PSoC5/USB.c **** *******************************************************************************/
  20:Generated_Source\PSoC5/USB.c **** 
  21:Generated_Source\PSoC5/USB.c **** #include "USB_pvt.h"
  22:Generated_Source\PSoC5/USB.c **** #include "USB_cydmac.h"
  23:Generated_Source\PSoC5/USB.c **** #include "USB_hid.h"
  24:Generated_Source\PSoC5/USB.c **** #include "USB_Dp.h"
  25:Generated_Source\PSoC5/USB.c **** 
ARM GAS  C:\Users\214016~1\AppData\Local\Temp\ccpUOjiz.s 			page 2


  26:Generated_Source\PSoC5/USB.c **** 
  27:Generated_Source\PSoC5/USB.c **** /***************************************
  28:Generated_Source\PSoC5/USB.c **** * Global data allocation
  29:Generated_Source\PSoC5/USB.c **** ***************************************/
  30:Generated_Source\PSoC5/USB.c **** 
  31:Generated_Source\PSoC5/USB.c **** /** Indicates whether the USBFS has been initialized. The variable is
  32:Generated_Source\PSoC5/USB.c **** * initialized to 0 after device reset and set to 1 the first time USBFS_Start()
  33:Generated_Source\PSoC5/USB.c **** * is called. This allows the Component to restart without reinitialization after
  34:Generated_Source\PSoC5/USB.c **** * the first call to the USBFS_Start() routine.
  35:Generated_Source\PSoC5/USB.c **** * If re-initialization of the Component is required, the variable should be set
  36:Generated_Source\PSoC5/USB.c **** * to 0 before the USBFS_Start() routine is called. Alternatively, the USBFS can
  37:Generated_Source\PSoC5/USB.c **** * be reinitialized by calling both USBFS_Init() and USBFS_InitComponent()
  38:Generated_Source\PSoC5/USB.c **** * functions.
  39:Generated_Source\PSoC5/USB.c **** */
  40:Generated_Source\PSoC5/USB.c **** uint8 USB_initVar = 0u;
  41:Generated_Source\PSoC5/USB.c **** 
  42:Generated_Source\PSoC5/USB.c **** #if (USB_EP_MANAGEMENT_DMA)
  43:Generated_Source\PSoC5/USB.c ****     #if (CY_PSOC4)
  44:Generated_Source\PSoC5/USB.c ****         static void USB_InitEpDma(void);
  45:Generated_Source\PSoC5/USB.c **** 
  46:Generated_Source\PSoC5/USB.c ****         /* DMA chanels assigend for endpoints. */
  47:Generated_Source\PSoC5/USB.c ****         const uint8 USB_DmaChan[USB_MAX_EP] =
  48:Generated_Source\PSoC5/USB.c ****         {
  49:Generated_Source\PSoC5/USB.c ****             0u,
  50:Generated_Source\PSoC5/USB.c ****             0u,
  51:Generated_Source\PSoC5/USB.c ****             0u,
  52:Generated_Source\PSoC5/USB.c ****             0u,
  53:Generated_Source\PSoC5/USB.c ****             0u,
  54:Generated_Source\PSoC5/USB.c ****             0u,
  55:Generated_Source\PSoC5/USB.c ****             0u,
  56:Generated_Source\PSoC5/USB.c ****             0u,
  57:Generated_Source\PSoC5/USB.c ****             0u,
  58:Generated_Source\PSoC5/USB.c ****         };        
  59:Generated_Source\PSoC5/USB.c ****     #else
  60:Generated_Source\PSoC5/USB.c ****         /* DMA chanels assigend for endpoints. */
  61:Generated_Source\PSoC5/USB.c ****         uint8 USB_DmaChan[USB_MAX_EP];
  62:Generated_Source\PSoC5/USB.c ****         
  63:Generated_Source\PSoC5/USB.c ****         /* DMA TDs require for PSoC 3/5LP operation. */
  64:Generated_Source\PSoC5/USB.c ****         uint8 USB_DmaTd[USB_MAX_EP];
  65:Generated_Source\PSoC5/USB.c ****     #endif /* (CY_PSOC4) */
  66:Generated_Source\PSoC5/USB.c **** #endif /* (USB_EP_MANAGEMENT_DMA) */
  67:Generated_Source\PSoC5/USB.c **** 
  68:Generated_Source\PSoC5/USB.c **** #if (USB_EP_MANAGEMENT_DMA_AUTO)
  69:Generated_Source\PSoC5/USB.c **** #if (CY_PSOC4)
  70:Generated_Source\PSoC5/USB.c ****     /* Number of DMA bursts. */
  71:Generated_Source\PSoC5/USB.c ****     uint8  USB_DmaEpBurstCnt   [USB_MAX_EP];
  72:Generated_Source\PSoC5/USB.c ****     
  73:Generated_Source\PSoC5/USB.c ****     /* Number of bytes to transfer in last DMA burst. */
  74:Generated_Source\PSoC5/USB.c ****     uint8  USB_DmaEpLastBurstEl[USB_MAX_EP];
  75:Generated_Source\PSoC5/USB.c **** 
  76:Generated_Source\PSoC5/USB.c ****     /* Storage for arrays above. */
  77:Generated_Source\PSoC5/USB.c ****     uint8  USB_DmaEpBurstCntBackup  [USB_MAX_EP];
  78:Generated_Source\PSoC5/USB.c ****     uint32 USB_DmaEpBufferAddrBackup[USB_MAX_EP];
  79:Generated_Source\PSoC5/USB.c ****      
  80:Generated_Source\PSoC5/USB.c ****     /* DMA trigger mux output for usb.dma_req[0-7]. */
  81:Generated_Source\PSoC5/USB.c ****     const uint8 USB_DmaReqOut[USB_MAX_EP] =
  82:Generated_Source\PSoC5/USB.c ****     {
ARM GAS  C:\Users\214016~1\AppData\Local\Temp\ccpUOjiz.s 			page 3


  83:Generated_Source\PSoC5/USB.c ****         0u,
  84:Generated_Source\PSoC5/USB.c ****         USB_ep1_dma__TR_OUTPUT,
  85:Generated_Source\PSoC5/USB.c ****         USB_ep2_dma__TR_OUTPUT,
  86:Generated_Source\PSoC5/USB.c ****         0u,
  87:Generated_Source\PSoC5/USB.c ****         0u,
  88:Generated_Source\PSoC5/USB.c ****         0u,
  89:Generated_Source\PSoC5/USB.c ****         0u,
  90:Generated_Source\PSoC5/USB.c ****         0u,
  91:Generated_Source\PSoC5/USB.c ****         0u,
  92:Generated_Source\PSoC5/USB.c ****     };
  93:Generated_Source\PSoC5/USB.c **** 
  94:Generated_Source\PSoC5/USB.c ****     /* DMA trigger mux output for usb.dma_burstend[0-7]. */
  95:Generated_Source\PSoC5/USB.c ****     const uint8 USB_DmaBurstEndOut[USB_MAX_EP] =
  96:Generated_Source\PSoC5/USB.c ****     {
  97:Generated_Source\PSoC5/USB.c ****         0u,
  98:Generated_Source\PSoC5/USB.c ****         USB_BURSTEND_0_TR_OUTPUT,
  99:Generated_Source\PSoC5/USB.c ****         USB_BURSTEND_1_TR_OUTPUT,
 100:Generated_Source\PSoC5/USB.c ****         USB_BURSTEND_2_TR_OUTPUT,
 101:Generated_Source\PSoC5/USB.c ****         USB_BURSTEND_3_TR_OUTPUT,
 102:Generated_Source\PSoC5/USB.c ****         USB_BURSTEND_4_TR_OUTPUT,
 103:Generated_Source\PSoC5/USB.c ****         USB_BURSTEND_5_TR_OUTPUT,
 104:Generated_Source\PSoC5/USB.c ****         USB_BURSTEND_6_TR_OUTPUT,
 105:Generated_Source\PSoC5/USB.c ****         USB_BURSTEND_7_TR_OUTPUT
 106:Generated_Source\PSoC5/USB.c ****     };
 107:Generated_Source\PSoC5/USB.c ****     
 108:Generated_Source\PSoC5/USB.c **** #else
 109:Generated_Source\PSoC5/USB.c ****     #if (USB_EP_DMA_AUTO_OPT == 0u)
 110:Generated_Source\PSoC5/USB.c ****         static uint8 clearInDataRdyStatus = USB_ARB_EPX_CFG_DEFAULT;
 111:Generated_Source\PSoC5/USB.c ****         uint8 USB_DmaNextTd[USB_MAX_EP];
 112:Generated_Source\PSoC5/USB.c ****         const uint8 USB_epX_TD_TERMOUT_EN[USB_MAX_EP] =
 113:Generated_Source\PSoC5/USB.c ****         {
 114:Generated_Source\PSoC5/USB.c ****             0u,
 115:Generated_Source\PSoC5/USB.c ****             0u,
 116:Generated_Source\PSoC5/USB.c ****             0u,
 117:Generated_Source\PSoC5/USB.c ****             0u,
 118:Generated_Source\PSoC5/USB.c ****             0u,
 119:Generated_Source\PSoC5/USB.c ****             0u,
 120:Generated_Source\PSoC5/USB.c ****             0u,
 121:Generated_Source\PSoC5/USB.c ****             0u,
 122:Generated_Source\PSoC5/USB.c ****             0u,
 123:Generated_Source\PSoC5/USB.c ****         };
 124:Generated_Source\PSoC5/USB.c **** 
 125:Generated_Source\PSoC5/USB.c ****         volatile uint16 USB_inLength[USB_MAX_EP];
 126:Generated_Source\PSoC5/USB.c ****         const uint8 *USB_inDataPointer[USB_MAX_EP];
 127:Generated_Source\PSoC5/USB.c ****         volatile uint8 USB_inBufFull[USB_MAX_EP];
 128:Generated_Source\PSoC5/USB.c ****     #endif /* (USB_EP_DMA_AUTO_OPT == 0u) */
 129:Generated_Source\PSoC5/USB.c **** #endif /* (CY_PSOC4) */
 130:Generated_Source\PSoC5/USB.c **** #endif /* (USB_EP_MANAGEMENT_DMA_AUTO) */
 131:Generated_Source\PSoC5/USB.c **** 
 132:Generated_Source\PSoC5/USB.c **** 
 133:Generated_Source\PSoC5/USB.c **** /*******************************************************************************
 134:Generated_Source\PSoC5/USB.c **** * Function Name: USB_Start
 135:Generated_Source\PSoC5/USB.c **** ****************************************************************************//**
 136:Generated_Source\PSoC5/USB.c **** *
 137:Generated_Source\PSoC5/USB.c **** *   This function performs all required initialization for the USBFS component.
 138:Generated_Source\PSoC5/USB.c **** *   After this function call, the USB device initiates communication with the
 139:Generated_Source\PSoC5/USB.c **** *   host by pull-up D+ line. This is the preferred method to begin component
ARM GAS  C:\Users\214016~1\AppData\Local\Temp\ccpUOjiz.s 			page 4


 140:Generated_Source\PSoC5/USB.c **** *   operation.
 141:Generated_Source\PSoC5/USB.c **** *
 142:Generated_Source\PSoC5/USB.c **** *   Note that global interrupts have to be enabled because interrupts are
 143:Generated_Source\PSoC5/USB.c **** *   required for USBFS component operation.
 144:Generated_Source\PSoC5/USB.c **** *
 145:Generated_Source\PSoC5/USB.c **** *   PSoC 4200L devices: when USBFS component configured to DMA with Automatic
 146:Generated_Source\PSoC5/USB.c **** *   Buffer Management, the DMA interrupt priority is changed to the highest
 147:Generated_Source\PSoC5/USB.c **** *   (priority 0) inside this function.
 148:Generated_Source\PSoC5/USB.c **** *
 149:Generated_Source\PSoC5/USB.c **** *   PSoC 3/PSoC 5LP devices: when USBFS component configured to DMA with
 150:Generated_Source\PSoC5/USB.c **** *   Automatic Buffer Management, the Arbiter interrupt priority is changed to
 151:Generated_Source\PSoC5/USB.c **** *   the highest (priority 0) inside this function.
 152:Generated_Source\PSoC5/USB.c **** *
 153:Generated_Source\PSoC5/USB.c **** *  \param device
 154:Generated_Source\PSoC5/USB.c **** *          Contains the device number of the desired device descriptor.
 155:Generated_Source\PSoC5/USB.c **** *          The device number can be found in the Device Descriptor Tab of
 156:Generated_Source\PSoC5/USB.c **** *          "Configure" dialog, under the settings of desired Device Descriptor,
 157:Generated_Source\PSoC5/USB.c **** *          in the "Device Number" field.
 158:Generated_Source\PSoC5/USB.c **** *  \param mode:
 159:Generated_Source\PSoC5/USB.c **** *   The operating voltage. This determines whether the voltage regulator
 160:Generated_Source\PSoC5/USB.c **** *   is enabled for 5V operation or if pass through mode is used for 3.3V
 161:Generated_Source\PSoC5/USB.c **** *   operation. Symbolic names and their associated values are given in the
 162:Generated_Source\PSoC5/USB.c **** *   following list.
 163:Generated_Source\PSoC5/USB.c **** *
 164:Generated_Source\PSoC5/USB.c **** *       *USB_3V_OPERATION* - Disable voltage regulator and pass-
 165:Generated_Source\PSoC5/USB.c **** *                                      through Vcc for pull-up
 166:Generated_Source\PSoC5/USB.c **** *
 167:Generated_Source\PSoC5/USB.c **** *       *USB_5V_OPERATION* - Enable voltage regulator and use
 168:Generated_Source\PSoC5/USB.c **** *                                      regulator for pull-up
 169:Generated_Source\PSoC5/USB.c **** *
 170:Generated_Source\PSoC5/USB.c **** *       *USB_DWR_POWER_OPERATION* - Enable or disable the voltage
 171:Generated_Source\PSoC5/USB.c **** *                                      regulator depending on the power supply
 172:Generated_Source\PSoC5/USB.c **** *                                      voltage configuration in the DWR tab.
 173:Generated_Source\PSoC5/USB.c **** *                                      For PSoC 3/5LP devices, the VDDD supply
 174:Generated_Source\PSoC5/USB.c **** *                                      voltage is considered and for PSoC 4A-L,
 175:Generated_Source\PSoC5/USB.c **** *                                      the VBUS supply voltage is considered.*
 176:Generated_Source\PSoC5/USB.c **** * \globalvars
 177:Generated_Source\PSoC5/USB.c **** *  \ref USB_initVar
 178:Generated_Source\PSoC5/USB.c **** *
 179:Generated_Source\PSoC5/USB.c **** * \sideeffect
 180:Generated_Source\PSoC5/USB.c **** *   This function will reset all communication states to default.
 181:Generated_Source\PSoC5/USB.c **** *
 182:Generated_Source\PSoC5/USB.c **** * \reentrant
 183:Generated_Source\PSoC5/USB.c **** *  No.
 184:Generated_Source\PSoC5/USB.c **** *
 185:Generated_Source\PSoC5/USB.c **** *******************************************************************************/
 186:Generated_Source\PSoC5/USB.c **** void USB_Start(uint8 device, uint8 mode) 
 187:Generated_Source\PSoC5/USB.c **** {
  33              		.loc 1 187 0
  34              		.cfi_startproc
  35              		@ args = 0, pretend = 0, frame = 8
  36              		@ frame_needed = 1, uses_anonymous_args = 0
  37 0000 80B5     		push	{r7, lr}
  38              		.cfi_def_cfa_offset 8
  39              		.cfi_offset 7, -8
  40              		.cfi_offset 14, -4
  41 0002 82B0     		sub	sp, sp, #8
ARM GAS  C:\Users\214016~1\AppData\Local\Temp\ccpUOjiz.s 			page 5


  42              		.cfi_def_cfa_offset 16
  43 0004 00AF     		add	r7, sp, #0
  44              		.cfi_def_cfa_register 7
  45 0006 0346     		mov	r3, r0
  46 0008 0A46     		mov	r2, r1
  47 000a FB71     		strb	r3, [r7, #7]
  48 000c 1346     		mov	r3, r2
  49 000e BB71     		strb	r3, [r7, #6]
 188:Generated_Source\PSoC5/USB.c ****     if (0u == USB_initVar)
  50              		.loc 1 188 0
  51 0010 084B     		ldr	r3, .L3
  52 0012 1B78     		ldrb	r3, [r3]	@ zero_extendqisi2
  53 0014 002B     		cmp	r3, #0
  54 0016 04D1     		bne	.L2
 189:Generated_Source\PSoC5/USB.c ****     {
 190:Generated_Source\PSoC5/USB.c ****         USB_Init();
  55              		.loc 1 190 0
  56 0018 FFF7FEFF 		bl	USB_Init
 191:Generated_Source\PSoC5/USB.c ****         USB_initVar = 1u;
  57              		.loc 1 191 0
  58 001c 054B     		ldr	r3, .L3
  59 001e 0122     		movs	r2, #1
  60 0020 1A70     		strb	r2, [r3]
  61              	.L2:
 192:Generated_Source\PSoC5/USB.c ****     }
 193:Generated_Source\PSoC5/USB.c **** 
 194:Generated_Source\PSoC5/USB.c ****     USB_InitComponent(device, mode);
  62              		.loc 1 194 0
  63 0022 FA79     		ldrb	r2, [r7, #7]	@ zero_extendqisi2
  64 0024 BB79     		ldrb	r3, [r7, #6]	@ zero_extendqisi2
  65 0026 1046     		mov	r0, r2
  66 0028 1946     		mov	r1, r3
  67 002a FFF7FEFF 		bl	USB_InitComponent
 195:Generated_Source\PSoC5/USB.c **** }
  68              		.loc 1 195 0
  69 002e 0837     		adds	r7, r7, #8
  70              		.cfi_def_cfa_offset 8
  71 0030 BD46     		mov	sp, r7
  72              		.cfi_def_cfa_register 13
  73              		@ sp needed
  74 0032 80BD     		pop	{r7, pc}
  75              	.L4:
  76              		.align	2
  77              	.L3:
  78 0034 00000000 		.word	USB_initVar
  79              		.cfi_endproc
  80              	.LFE0:
  81              		.size	USB_Start, .-USB_Start
  82              		.section	.text.USB_Init,"ax",%progbits
  83              		.align	2
  84              		.global	USB_Init
  85              		.thumb
  86              		.thumb_func
  87              		.type	USB_Init, %function
  88              	USB_Init:
  89              	.LFB1:
 196:Generated_Source\PSoC5/USB.c **** 
ARM GAS  C:\Users\214016~1\AppData\Local\Temp\ccpUOjiz.s 			page 6


 197:Generated_Source\PSoC5/USB.c **** 
 198:Generated_Source\PSoC5/USB.c **** /*******************************************************************************
 199:Generated_Source\PSoC5/USB.c **** * Function Name: USB_Init
 200:Generated_Source\PSoC5/USB.c **** ****************************************************************************//**
 201:Generated_Source\PSoC5/USB.c **** *
 202:Generated_Source\PSoC5/USB.c **** * This function initializes or restores the component according to the
 203:Generated_Source\PSoC5/USB.c **** * customizer Configure dialog settings. It is not necessary to call
 204:Generated_Source\PSoC5/USB.c **** * USB_Init() because the USB_Start() routine calls
 205:Generated_Source\PSoC5/USB.c **** * this function and is the preferred method to begin component operation.
 206:Generated_Source\PSoC5/USB.c **** *
 207:Generated_Source\PSoC5/USB.c **** * \reentrant
 208:Generated_Source\PSoC5/USB.c **** *  No.
 209:Generated_Source\PSoC5/USB.c **** *
 210:Generated_Source\PSoC5/USB.c **** *******************************************************************************/
 211:Generated_Source\PSoC5/USB.c **** void USB_Init(void) 
 212:Generated_Source\PSoC5/USB.c **** {
  90              		.loc 1 212 0
  91              		.cfi_startproc
  92              		@ args = 0, pretend = 0, frame = 8
  93              		@ frame_needed = 1, uses_anonymous_args = 0
  94 0000 80B5     		push	{r7, lr}
  95              		.cfi_def_cfa_offset 8
  96              		.cfi_offset 7, -8
  97              		.cfi_offset 14, -4
  98 0002 82B0     		sub	sp, sp, #8
  99              		.cfi_def_cfa_offset 16
 100 0004 00AF     		add	r7, sp, #0
 101              		.cfi_def_cfa_register 7
 213:Generated_Source\PSoC5/USB.c **** #if (CY_PSOC4)
 214:Generated_Source\PSoC5/USB.c ****     /* Enable clock to USB IP. */
 215:Generated_Source\PSoC5/USB.c ****     USB_USB_CLK_EN_REG = USB_USB_CLK_CSR_CLK_EN;
 216:Generated_Source\PSoC5/USB.c **** 
 217:Generated_Source\PSoC5/USB.c ****     /* The internal regulator (CR1.REG_ENABLE) is enabled in
 218:Generated_Source\PSoC5/USB.c ****     * USB_InitComponent() if it is required.
 219:Generated_Source\PSoC5/USB.c ****     */
 220:Generated_Source\PSoC5/USB.c **** 
 221:Generated_Source\PSoC5/USB.c ****     /* Enable USBIO control on drive mode of D+ and D- pins. */
 222:Generated_Source\PSoC5/USB.c ****     USB_USBIO_CR1_REG &= ~ (uint32) USB_USBIO_CR1_IOMODE;
 223:Generated_Source\PSoC5/USB.c **** 
 224:Generated_Source\PSoC5/USB.c ****     /* Set number of LF CLK to detect UBS bus reset. */
 225:Generated_Source\PSoC5/USB.c ****     USB_BUS_RST_CNT_REG = USB_DEFUALT_BUS_RST_CNT;
 226:Generated_Source\PSoC5/USB.c **** 
 227:Generated_Source\PSoC5/USB.c ****     /* Select VBUS detection source and clear PHY isolate. The application level
 228:Generated_Source\PSoC5/USB.c ****     * must ensure that VBUS is valid. There is no need to wait 2us before VBUS is valid.
 229:Generated_Source\PSoC5/USB.c ****     */
 230:Generated_Source\PSoC5/USB.c ****     USB_POWER_CTRL_REG = USB_DEFAULT_POWER_CTRL_VBUS;
 231:Generated_Source\PSoC5/USB.c **** 
 232:Generated_Source\PSoC5/USB.c ****     /* Enable PHY detector and single-ended and differential receivers. */
 233:Generated_Source\PSoC5/USB.c ****     USB_POWER_CTRL_REG |= USB_DEFAULT_POWER_CTRL_PHY;
 234:Generated_Source\PSoC5/USB.c **** 
 235:Generated_Source\PSoC5/USB.c ****     /* Suspend clear sequence. */
 236:Generated_Source\PSoC5/USB.c ****     USB_POWER_CTRL_REG &= (uint32) ~USB_POWER_CTRL_SUSPEND;
 237:Generated_Source\PSoC5/USB.c ****     CyDelayUs(USB_WAIT_SUSPEND_DEL_DISABLE);
 238:Generated_Source\PSoC5/USB.c ****     USB_POWER_CTRL_REG &= (uint32) ~USB_POWER_CTRL_SUSPEND_DEL;
 239:Generated_Source\PSoC5/USB.c **** 
 240:Generated_Source\PSoC5/USB.c ****     /* Sets IMO lock options and clear all other bits. */
 241:Generated_Source\PSoC5/USB.c ****     USB_CR1_REG = USB_DEFUALT_CR1;
ARM GAS  C:\Users\214016~1\AppData\Local\Temp\ccpUOjiz.s 			page 7


 242:Generated_Source\PSoC5/USB.c **** 
 243:Generated_Source\PSoC5/USB.c ****     /* Configure level (hi, lo, med) for each interrupt source. */
 244:Generated_Source\PSoC5/USB.c ****     USB_INTR_LVL_SEL_REG = USB_DEFAULT_INTR_LVL_SEL;
 245:Generated_Source\PSoC5/USB.c **** 
 246:Generated_Source\PSoC5/USB.c ****     /* Configure interrupt sources from: SOF, Bus Reset and EP0. */
 247:Generated_Source\PSoC5/USB.c ****     USB_INTR_SIE_MASK_REG = USB_DEFAULT_INTR_SIE_MASK;
 248:Generated_Source\PSoC5/USB.c **** 
 249:Generated_Source\PSoC5/USB.c **** #else
 250:Generated_Source\PSoC5/USB.c ****     uint8 enableInterrupts = CyEnterCriticalSection();
 102              		.loc 1 250 0
 103 0006 FFF7FEFF 		bl	CyEnterCriticalSection
 104 000a 0346     		mov	r3, r0
 105 000c FB71     		strb	r3, [r7, #7]
 251:Generated_Source\PSoC5/USB.c **** 
 252:Generated_Source\PSoC5/USB.c **** #if (USB_EP_MANAGEMENT_DMA)
 253:Generated_Source\PSoC5/USB.c ****     uint16 i;
 254:Generated_Source\PSoC5/USB.c **** #endif /* (USB_EP_MANAGEMENT_DMA) */
 255:Generated_Source\PSoC5/USB.c **** 
 256:Generated_Source\PSoC5/USB.c ****     /* Enable USB block. */
 257:Generated_Source\PSoC5/USB.c ****     USB_PM_ACT_CFG_REG |= USB_PM_ACT_EN_FSUSB;
 106              		.loc 1 257 0
 107 000e 4F4A     		ldr	r2, .L6
 108 0010 4E4B     		ldr	r3, .L6
 109 0012 1B78     		ldrb	r3, [r3]
 110 0014 DBB2     		uxtb	r3, r3
 111 0016 43F00103 		orr	r3, r3, #1
 112 001a DBB2     		uxtb	r3, r3
 113 001c 1370     		strb	r3, [r2]
 258:Generated_Source\PSoC5/USB.c ****     /* Enable USB block for Standby Power Mode. */
 259:Generated_Source\PSoC5/USB.c ****     USB_PM_STBY_CFG_REG |= USB_PM_STBY_EN_FSUSB;
 114              		.loc 1 259 0
 115 001e 4C4A     		ldr	r2, .L6+4
 116 0020 4B4B     		ldr	r3, .L6+4
 117 0022 1B78     		ldrb	r3, [r3]
 118 0024 DBB2     		uxtb	r3, r3
 119 0026 43F00103 		orr	r3, r3, #1
 120 002a DBB2     		uxtb	r3, r3
 121 002c 1370     		strb	r3, [r2]
 260:Generated_Source\PSoC5/USB.c **** 
 261:Generated_Source\PSoC5/USB.c ****     /* Enable core clock. */
 262:Generated_Source\PSoC5/USB.c ****     USB_USB_CLK_EN_REG = USB_USB_CLK_ENABLE;
 122              		.loc 1 262 0
 123 002e 494B     		ldr	r3, .L6+8
 124 0030 0122     		movs	r2, #1
 125 0032 1A70     		strb	r2, [r3]
 263:Generated_Source\PSoC5/USB.c **** 
 264:Generated_Source\PSoC5/USB.c ****     USB_CR1_REG = USB_CR1_ENABLE_LOCK;
 126              		.loc 1 264 0
 127 0034 484B     		ldr	r3, .L6+12
 128 0036 0222     		movs	r2, #2
 129 0038 1A70     		strb	r2, [r3]
 265:Generated_Source\PSoC5/USB.c **** 
 266:Generated_Source\PSoC5/USB.c ****     /* ENABLING USBIO PADS IN USB MODE FROM I/O MODE. */
 267:Generated_Source\PSoC5/USB.c ****     /* Ensure USB transmit enable is low (USB_USBIO_CR0.ten). - Manual Transmission - Disabled. */
 268:Generated_Source\PSoC5/USB.c ****     USB_USBIO_CR0_REG &= (uint8) ~USB_USBIO_CR0_TEN;
 130              		.loc 1 268 0
 131 003a 484A     		ldr	r2, .L6+16
ARM GAS  C:\Users\214016~1\AppData\Local\Temp\ccpUOjiz.s 			page 8


 132 003c 474B     		ldr	r3, .L6+16
 133 003e 1B78     		ldrb	r3, [r3]
 134 0040 DBB2     		uxtb	r3, r3
 135 0042 03F07F03 		and	r3, r3, #127
 136 0046 DBB2     		uxtb	r3, r3
 137 0048 1370     		strb	r3, [r2]
 269:Generated_Source\PSoC5/USB.c ****     CyDelayUs(USB_WAIT_REG_STABILITY_50NS);  /* ~50ns delay. */
 138              		.loc 1 269 0
 139 004a 0020     		movs	r0, #0
 140 004c FFF7FEFF 		bl	CyDelayUs
 270:Generated_Source\PSoC5/USB.c ****     /* Disable USBIO by asserting PM.USB_CR0.fsusbio_pd_n(Inverted.
 271:Generated_Source\PSoC5/USB.c ****     *  high. These bits will be set low by the power manager out-of-reset.
 272:Generated_Source\PSoC5/USB.c ****     *  Also confirm USBIO pull-up is disabled.
 273:Generated_Source\PSoC5/USB.c ****     */
 274:Generated_Source\PSoC5/USB.c ****     USB_PM_USB_CR0_REG &= (uint8) ~(USB_PM_USB_CR0_PD_N |
 141              		.loc 1 274 0
 142 0050 434A     		ldr	r2, .L6+20
 143 0052 434B     		ldr	r3, .L6+20
 144 0054 1B78     		ldrb	r3, [r3]
 145 0056 DBB2     		uxtb	r3, r3
 146 0058 23F00603 		bic	r3, r3, #6
 147 005c DBB2     		uxtb	r3, r3
 148 005e 1370     		strb	r3, [r2]
 275:Generated_Source\PSoC5/USB.c ****                                                  USB_PM_USB_CR0_PD_PULLUP_N);
 276:Generated_Source\PSoC5/USB.c **** 
 277:Generated_Source\PSoC5/USB.c ****     /* Select IOMODE to USB mode. */
 278:Generated_Source\PSoC5/USB.c ****     USB_USBIO_CR1_REG &= (uint8) ~USB_USBIO_CR1_IOMODE;
 149              		.loc 1 278 0
 150 0060 404A     		ldr	r2, .L6+24
 151 0062 404B     		ldr	r3, .L6+24
 152 0064 1B78     		ldrb	r3, [r3]
 153 0066 DBB2     		uxtb	r3, r3
 154 0068 23F02003 		bic	r3, r3, #32
 155 006c DBB2     		uxtb	r3, r3
 156 006e 1370     		strb	r3, [r2]
 279:Generated_Source\PSoC5/USB.c **** 
 280:Generated_Source\PSoC5/USB.c ****     /* Enable USBIO reference by setting PM.USB_CR0.fsusbio_ref_en. */
 281:Generated_Source\PSoC5/USB.c ****     USB_PM_USB_CR0_REG |= USB_PM_USB_CR0_REF_EN;
 157              		.loc 1 281 0
 158 0070 3B4A     		ldr	r2, .L6+20
 159 0072 3B4B     		ldr	r3, .L6+20
 160 0074 1B78     		ldrb	r3, [r3]
 161 0076 DBB2     		uxtb	r3, r3
 162 0078 43F00103 		orr	r3, r3, #1
 163 007c DBB2     		uxtb	r3, r3
 164 007e 1370     		strb	r3, [r2]
 282:Generated_Source\PSoC5/USB.c ****     /* Reference is available for 1us after regulator is enabled. */
 283:Generated_Source\PSoC5/USB.c ****     CyDelayUs(USB_WAIT_REG_STABILITY_1US);
 165              		.loc 1 283 0
 166 0080 0120     		movs	r0, #1
 167 0082 FFF7FEFF 		bl	CyDelayUs
 284:Generated_Source\PSoC5/USB.c ****     /* OR 40us after power is restored. */
 285:Generated_Source\PSoC5/USB.c ****     CyDelayUs(USB_WAIT_VREF_RESTORE);
 168              		.loc 1 285 0
 169 0086 2820     		movs	r0, #40
 170 0088 FFF7FEFF 		bl	CyDelayUs
 286:Generated_Source\PSoC5/USB.c ****     /* Ensure single-ended disable bits are low (PRT15.INP_DIS[7:6])(input receiver enabled). */
ARM GAS  C:\Users\214016~1\AppData\Local\Temp\ccpUOjiz.s 			page 9


 287:Generated_Source\PSoC5/USB.c ****     USB_DM_INP_DIS_REG &= (uint8) ~USB_DM_MASK;
 171              		.loc 1 287 0
 172 008c 364A     		ldr	r2, .L6+28
 173 008e 364B     		ldr	r3, .L6+28
 174 0090 1B78     		ldrb	r3, [r3]
 175 0092 DBB2     		uxtb	r3, r3
 176 0094 03F07F03 		and	r3, r3, #127
 177 0098 DBB2     		uxtb	r3, r3
 178 009a 1370     		strb	r3, [r2]
 288:Generated_Source\PSoC5/USB.c ****     USB_DP_INP_DIS_REG &= (uint8) ~USB_DP_MASK;
 179              		.loc 1 288 0
 180 009c 324A     		ldr	r2, .L6+28
 181 009e 324B     		ldr	r3, .L6+28
 182 00a0 1B78     		ldrb	r3, [r3]
 183 00a2 DBB2     		uxtb	r3, r3
 184 00a4 23F04003 		bic	r3, r3, #64
 185 00a8 DBB2     		uxtb	r3, r3
 186 00aa 1370     		strb	r3, [r2]
 289:Generated_Source\PSoC5/USB.c **** 
 290:Generated_Source\PSoC5/USB.c ****     /* Enable USBIO. */
 291:Generated_Source\PSoC5/USB.c ****     USB_PM_USB_CR0_REG |= USB_PM_USB_CR0_PD_N;
 187              		.loc 1 291 0
 188 00ac 2C4A     		ldr	r2, .L6+20
 189 00ae 2C4B     		ldr	r3, .L6+20
 190 00b0 1B78     		ldrb	r3, [r3]
 191 00b2 DBB2     		uxtb	r3, r3
 192 00b4 43F00203 		orr	r3, r3, #2
 193 00b8 DBB2     		uxtb	r3, r3
 194 00ba 1370     		strb	r3, [r2]
 292:Generated_Source\PSoC5/USB.c ****     CyDelayUs(USB_WAIT_PD_PULLUP_N_ENABLE);
 195              		.loc 1 292 0
 196 00bc 0220     		movs	r0, #2
 197 00be FFF7FEFF 		bl	CyDelayUs
 293:Generated_Source\PSoC5/USB.c ****     /* Set USBIO pull-up enable. */
 294:Generated_Source\PSoC5/USB.c ****     USB_PM_USB_CR0_REG |= USB_PM_USB_CR0_PD_PULLUP_N;
 198              		.loc 1 294 0
 199 00c2 274A     		ldr	r2, .L6+20
 200 00c4 264B     		ldr	r3, .L6+20
 201 00c6 1B78     		ldrb	r3, [r3]
 202 00c8 DBB2     		uxtb	r3, r3
 203 00ca 43F00403 		orr	r3, r3, #4
 204 00ce DBB2     		uxtb	r3, r3
 205 00d0 1370     		strb	r3, [r2]
 295:Generated_Source\PSoC5/USB.c **** 
 296:Generated_Source\PSoC5/USB.c ****     /* Reset Arbiter Write Address register for endpoint 1. */
 297:Generated_Source\PSoC5/USB.c ****     CY_SET_REG8(USB_ARB_RW1_WA_PTR,     0u);
 206              		.loc 1 297 0
 207 00d2 264B     		ldr	r3, .L6+32
 208 00d4 0022     		movs	r2, #0
 209 00d6 1A70     		strb	r2, [r3]
 298:Generated_Source\PSoC5/USB.c ****     CY_SET_REG8(USB_ARB_RW1_WA_MSB_PTR, 0u);
 210              		.loc 1 298 0
 211 00d8 254B     		ldr	r3, .L6+36
 212 00da 0022     		movs	r2, #0
 213 00dc 1A70     		strb	r2, [r3]
 299:Generated_Source\PSoC5/USB.c **** 
 300:Generated_Source\PSoC5/USB.c **** #if (USB_EP_MANAGEMENT_DMA)
ARM GAS  C:\Users\214016~1\AppData\Local\Temp\ccpUOjiz.s 			page 10


 301:Generated_Source\PSoC5/USB.c ****     /* Initialize transfer descriptor. This will be used to detect DMA state - initialized or not. 
 302:Generated_Source\PSoC5/USB.c ****     for (i = 0u; i < USB_MAX_EP; ++i)
 303:Generated_Source\PSoC5/USB.c ****     {
 304:Generated_Source\PSoC5/USB.c ****         USB_DmaTd[i] = DMA_INVALID_TD;
 305:Generated_Source\PSoC5/USB.c **** 
 306:Generated_Source\PSoC5/USB.c ****     #if (USB_EP_MANAGEMENT_DMA_AUTO && (USB_EP_DMA_AUTO_OPT == 0u))
 307:Generated_Source\PSoC5/USB.c ****         USB_DmaNextTd[i] = DMA_INVALID_TD;
 308:Generated_Source\PSoC5/USB.c ****     #endif /* (USB_EP_MANAGEMENT_DMA_AUTO && (USB_EP_DMA_AUTO_OPT == 0u)) */
 309:Generated_Source\PSoC5/USB.c ****     }
 310:Generated_Source\PSoC5/USB.c **** #endif /* (USB_EP_MANAGEMENT_DMA) */
 311:Generated_Source\PSoC5/USB.c **** 
 312:Generated_Source\PSoC5/USB.c ****     CyExitCriticalSection(enableInterrupts);
 214              		.loc 1 312 0
 215 00de FB79     		ldrb	r3, [r7, #7]	@ zero_extendqisi2
 216 00e0 1846     		mov	r0, r3
 217 00e2 FFF7FEFF 		bl	CyExitCriticalSection
 313:Generated_Source\PSoC5/USB.c **** #endif /* (CY_PSOC4) */
 314:Generated_Source\PSoC5/USB.c **** 
 315:Generated_Source\PSoC5/USB.c ****     /* Configure interrupts from USB block. */
 316:Generated_Source\PSoC5/USB.c **** #if (CY_PSOC4)
 317:Generated_Source\PSoC5/USB.c ****     /* Configure hi_int: set handler and priority. */
 318:Generated_Source\PSoC5/USB.c ****     CyIntSetPriority     (USB_INTR_HI_VECT_NUM,  USB_INTR_HI_PRIORITY);
 319:Generated_Source\PSoC5/USB.c ****     (void) CyIntSetVector(USB_INTR_HI_VECT_NUM, &USB_INTR_HI_ISR);
 320:Generated_Source\PSoC5/USB.c **** 
 321:Generated_Source\PSoC5/USB.c ****     /* Configure lo_int: set handler and priority. */
 322:Generated_Source\PSoC5/USB.c ****     CyIntSetPriority     (USB_INTR_LO_VECT_NUM,  USB_INTR_LO_PRIORITY);
 323:Generated_Source\PSoC5/USB.c ****     (void) CyIntSetVector(USB_INTR_LO_VECT_NUM, &USB_INTR_LO_ISR);
 324:Generated_Source\PSoC5/USB.c **** 
 325:Generated_Source\PSoC5/USB.c ****     /* Configure med_int: set handler and priority (routed through DSI). */
 326:Generated_Source\PSoC5/USB.c ****     CyIntSetPriority     (USB_INTR_MED_VECT_NUM,  USB_INTR_MED_PRIORITY);
 327:Generated_Source\PSoC5/USB.c ****     (void) CyIntSetVector(USB_INTR_MED_VECT_NUM, &USB_INTR_MED_ISR);
 328:Generated_Source\PSoC5/USB.c **** 
 329:Generated_Source\PSoC5/USB.c **** #else
 330:Generated_Source\PSoC5/USB.c ****     /* Set bus reset interrupt. */
 331:Generated_Source\PSoC5/USB.c ****     CyIntSetPriority(USB_BUS_RESET_VECT_NUM, USB_BUS_RESET_PRIOR);
 218              		.loc 1 331 0
 219 00e6 1720     		movs	r0, #23
 220 00e8 0721     		movs	r1, #7
 221 00ea FFF7FEFF 		bl	CyIntSetPriority
 332:Generated_Source\PSoC5/USB.c ****     (void) CyIntSetVector(USB_BUS_RESET_VECT_NUM,   &USB_BUS_RESET_ISR);
 222              		.loc 1 332 0
 223 00ee 1720     		movs	r0, #23
 224 00f0 2049     		ldr	r1, .L6+40
 225 00f2 FFF7FEFF 		bl	CyIntSetVector
 333:Generated_Source\PSoC5/USB.c **** 
 334:Generated_Source\PSoC5/USB.c ****     /* Set Control Endpoint Interrupt. */
 335:Generated_Source\PSoC5/USB.c ****     CyIntSetPriority(USB_EP_0_VECT_NUM, USB_EP_0_PRIOR);
 226              		.loc 1 335 0
 227 00f6 1820     		movs	r0, #24
 228 00f8 0721     		movs	r1, #7
 229 00fa FFF7FEFF 		bl	CyIntSetPriority
 336:Generated_Source\PSoC5/USB.c ****     (void) CyIntSetVector(USB_EP_0_VECT_NUM,   &USB_EP_0_ISR);
 230              		.loc 1 336 0
 231 00fe 1820     		movs	r0, #24
 232 0100 1D49     		ldr	r1, .L6+44
 233 0102 FFF7FEFF 		bl	CyIntSetVector
 337:Generated_Source\PSoC5/USB.c **** 
ARM GAS  C:\Users\214016~1\AppData\Local\Temp\ccpUOjiz.s 			page 11


 338:Generated_Source\PSoC5/USB.c ****     /* Set SOF interrupt. */
 339:Generated_Source\PSoC5/USB.c ****     #if (USB_SOF_ISR_ACTIVE)
 340:Generated_Source\PSoC5/USB.c ****         CyIntSetPriority     (USB_SOF_VECT_NUM,  USB_SOF_PRIOR);
 234              		.loc 1 340 0
 235 0106 1520     		movs	r0, #21
 236 0108 0721     		movs	r1, #7
 237 010a FFF7FEFF 		bl	CyIntSetPriority
 341:Generated_Source\PSoC5/USB.c ****         (void) CyIntSetVector(USB_SOF_VECT_NUM, &USB_SOF_ISR);
 238              		.loc 1 341 0
 239 010e 1520     		movs	r0, #21
 240 0110 1A49     		ldr	r1, .L6+48
 241 0112 FFF7FEFF 		bl	CyIntSetVector
 342:Generated_Source\PSoC5/USB.c ****     #endif /* (USB_SOF_ISR_ACTIVE) */
 343:Generated_Source\PSoC5/USB.c **** 
 344:Generated_Source\PSoC5/USB.c ****     /* Set Data Endpoint 1 Interrupt. */
 345:Generated_Source\PSoC5/USB.c ****     #if (USB_EP1_ISR_ACTIVE)
 346:Generated_Source\PSoC5/USB.c ****         CyIntSetPriority     (USB_EP_1_VECT_NUM,  USB_EP_1_PRIOR);
 242              		.loc 1 346 0
 243 0116 0520     		movs	r0, #5
 244 0118 0721     		movs	r1, #7
 245 011a FFF7FEFF 		bl	CyIntSetPriority
 347:Generated_Source\PSoC5/USB.c ****         (void) CyIntSetVector(USB_EP_1_VECT_NUM,  &USB_EP_1_ISR);
 246              		.loc 1 347 0
 247 011e 0520     		movs	r0, #5
 248 0120 1749     		ldr	r1, .L6+52
 249 0122 FFF7FEFF 		bl	CyIntSetVector
 348:Generated_Source\PSoC5/USB.c ****     #endif /* (USB_EP1_ISR_ACTIVE) */
 349:Generated_Source\PSoC5/USB.c **** 
 350:Generated_Source\PSoC5/USB.c ****     /* Set Data Endpoint 2 Interrupt. */
 351:Generated_Source\PSoC5/USB.c ****     #if (USB_EP2_ISR_ACTIVE)
 352:Generated_Source\PSoC5/USB.c ****         CyIntSetPriority     (USB_EP_2_VECT_NUM,  USB_EP_2_PRIOR);
 250              		.loc 1 352 0
 251 0126 0620     		movs	r0, #6
 252 0128 0721     		movs	r1, #7
 253 012a FFF7FEFF 		bl	CyIntSetPriority
 353:Generated_Source\PSoC5/USB.c ****         (void) CyIntSetVector(USB_EP_2_VECT_NUM, &USB_EP_2_ISR);
 254              		.loc 1 353 0
 255 012e 0620     		movs	r0, #6
 256 0130 1449     		ldr	r1, .L6+56
 257 0132 FFF7FEFF 		bl	CyIntSetVector
 354:Generated_Source\PSoC5/USB.c ****     #endif /* (USB_EP2_ISR_ACTIVE) */
 355:Generated_Source\PSoC5/USB.c **** 
 356:Generated_Source\PSoC5/USB.c ****     /* Set Data Endpoint 3 Interrupt. */
 357:Generated_Source\PSoC5/USB.c ****     #if (USB_EP3_ISR_ACTIVE)
 358:Generated_Source\PSoC5/USB.c ****         CyIntSetPriority     (USB_EP_3_VECT_NUM,  USB_EP_3_PRIOR);
 359:Generated_Source\PSoC5/USB.c ****         (void) CyIntSetVector(USB_EP_3_VECT_NUM, &USB_EP_3_ISR);
 360:Generated_Source\PSoC5/USB.c ****     #endif /* (USB_EP3_ISR_ACTIVE) */
 361:Generated_Source\PSoC5/USB.c **** 
 362:Generated_Source\PSoC5/USB.c ****     /* Set Data Endpoint 4 Interrupt. */
 363:Generated_Source\PSoC5/USB.c ****     #if (USB_EP4_ISR_ACTIVE)
 364:Generated_Source\PSoC5/USB.c ****         CyIntSetPriority     (USB_EP_4_VECT_NUM,  USB_EP_4_PRIOR);
 365:Generated_Source\PSoC5/USB.c ****         (void) CyIntSetVector(USB_EP_4_VECT_NUM, &USB_EP_4_ISR);
 366:Generated_Source\PSoC5/USB.c ****     #endif /* (USB_EP4_ISR_ACTIVE) */
 367:Generated_Source\PSoC5/USB.c **** 
 368:Generated_Source\PSoC5/USB.c ****     /* Set Data Endpoint 5 Interrupt. */
 369:Generated_Source\PSoC5/USB.c ****     #if (USB_EP5_ISR_ACTIVE)
 370:Generated_Source\PSoC5/USB.c ****         CyIntSetPriority     (USB_EP_5_VECT_NUM,  USB_EP_5_PRIOR);
ARM GAS  C:\Users\214016~1\AppData\Local\Temp\ccpUOjiz.s 			page 12


 371:Generated_Source\PSoC5/USB.c ****         (void) CyIntSetVector(USB_EP_5_VECT_NUM, &USB_EP_5_ISR);
 372:Generated_Source\PSoC5/USB.c ****     #endif /* (USB_EP5_ISR_ACTIVE) */
 373:Generated_Source\PSoC5/USB.c **** 
 374:Generated_Source\PSoC5/USB.c ****     /* Set Data Endpoint 6 Interrupt. */
 375:Generated_Source\PSoC5/USB.c ****     #if (USB_EP6_ISR_ACTIVE)
 376:Generated_Source\PSoC5/USB.c ****         CyIntSetPriority     (USB_EP_6_VECT_NUM,  USB_EP_6_PRIOR);
 377:Generated_Source\PSoC5/USB.c ****         (void) CyIntSetVector(USB_EP_6_VECT_NUM, &USB_EP_6_ISR);
 378:Generated_Source\PSoC5/USB.c ****     #endif /* (USB_EP6_ISR_ACTIVE) */
 379:Generated_Source\PSoC5/USB.c **** 
 380:Generated_Source\PSoC5/USB.c ****      /* Set Data Endpoint 7 Interrupt. */
 381:Generated_Source\PSoC5/USB.c ****     #if (USB_EP7_ISR_ACTIVE)
 382:Generated_Source\PSoC5/USB.c ****         CyIntSetPriority     (USB_EP_7_VECT_NUM,  USB_EP_7_PRIOR);
 383:Generated_Source\PSoC5/USB.c ****         (void) CyIntSetVector(USB_EP_7_VECT_NUM, &USB_EP_7_ISR);
 384:Generated_Source\PSoC5/USB.c ****     #endif /* (USB_EP7_ISR_ACTIVE) */
 385:Generated_Source\PSoC5/USB.c **** 
 386:Generated_Source\PSoC5/USB.c ****     /* Set Data Endpoint 8 Interrupt. */
 387:Generated_Source\PSoC5/USB.c ****     #if (USB_EP8_ISR_ACTIVE)
 388:Generated_Source\PSoC5/USB.c ****         CyIntSetPriority     (USB_EP_8_VECT_NUM,  USB_EP_8_PRIOR);
 389:Generated_Source\PSoC5/USB.c ****         (void) CyIntSetVector(USB_EP_8_VECT_NUM, &USB_EP_8_ISR);
 390:Generated_Source\PSoC5/USB.c ****     #endif /* (USB_EP8_ISR_ACTIVE) */
 391:Generated_Source\PSoC5/USB.c **** 
 392:Generated_Source\PSoC5/USB.c ****     /* Set ARB Interrupt. */
 393:Generated_Source\PSoC5/USB.c ****     #if (USB_EP_MANAGEMENT_DMA && USB_ARB_ISR_ACTIVE)
 394:Generated_Source\PSoC5/USB.c ****         CyIntSetPriority     (USB_ARB_VECT_NUM,  USB_ARB_PRIOR);
 395:Generated_Source\PSoC5/USB.c ****         (void) CyIntSetVector(USB_ARB_VECT_NUM, &USB_ARB_ISR);
 396:Generated_Source\PSoC5/USB.c ****     #endif /* (USB_EP_MANAGEMENT_DMA && USB_ARB_ISR_ACTIVE) */
 397:Generated_Source\PSoC5/USB.c **** #endif /* (CY_PSOC4) */
 398:Generated_Source\PSoC5/USB.c **** 
 399:Generated_Source\PSoC5/USB.c ****     /* Common: Configure GPIO interrupt for wakeup. */
 400:Generated_Source\PSoC5/USB.c **** #if (USB_DP_ISR_ACTIVE)
 401:Generated_Source\PSoC5/USB.c ****     CyIntSetPriority     (USB_DP_INTC_VECT_NUM,  USB_DP_INTC_PRIORITY);
 258              		.loc 1 401 0
 259 0136 0C20     		movs	r0, #12
 260 0138 0721     		movs	r1, #7
 261 013a FFF7FEFF 		bl	CyIntSetPriority
 402:Generated_Source\PSoC5/USB.c ****     (void) CyIntSetVector(USB_DP_INTC_VECT_NUM, &USB_DP_ISR);
 262              		.loc 1 402 0
 263 013e 0C20     		movs	r0, #12
 264 0140 1149     		ldr	r1, .L6+60
 265 0142 FFF7FEFF 		bl	CyIntSetVector
 403:Generated_Source\PSoC5/USB.c **** #endif /* (USB_DP_ISR_ACTIVE) */
 404:Generated_Source\PSoC5/USB.c **** 
 405:Generated_Source\PSoC5/USB.c **** #if (USB_EP_MANAGEMENT_DMA && CY_PSOC4)
 406:Generated_Source\PSoC5/USB.c ****     /* Initialize DMA channels. */
 407:Generated_Source\PSoC5/USB.c ****     USB_InitEpDma();
 408:Generated_Source\PSoC5/USB.c **** #endif /* (USB_EP_MANAGEMENT_DMA && CY_PSOC4) */
 409:Generated_Source\PSoC5/USB.c **** }
 266              		.loc 1 409 0
 267 0146 0837     		adds	r7, r7, #8
 268              		.cfi_def_cfa_offset 8
 269 0148 BD46     		mov	sp, r7
 270              		.cfi_def_cfa_register 13
 271              		@ sp needed
 272 014a 80BD     		pop	{r7, pc}
 273              	.L7:
 274              		.align	2
 275              	.L6:
ARM GAS  C:\Users\214016~1\AppData\Local\Temp\ccpUOjiz.s 			page 13


 276 014c A5430040 		.word	1073759141
 277 0150 B5430040 		.word	1073759157
 278 0154 9D600040 		.word	1073766557
 279 0158 09600040 		.word	1073766409
 280 015c 10600040 		.word	1073766416
 281 0160 94430040 		.word	1073759124
 282 0164 12600040 		.word	1073766418
 283 0168 F8510040 		.word	1073762808
 284 016c 84600040 		.word	1073766532
 285 0170 85600040 		.word	1073766533
 286 0174 00000000 		.word	USB_BUS_RESET_ISR
 287 0178 00000000 		.word	USB_EP_0_ISR
 288 017c 00000000 		.word	USB_SOF_ISR
 289 0180 00000000 		.word	USB_EP_1_ISR
 290 0184 00000000 		.word	USB_EP_2_ISR
 291 0188 00000000 		.word	USB_DP_ISR
 292              		.cfi_endproc
 293              	.LFE1:
 294              		.size	USB_Init, .-USB_Init
 295              		.section	.text.USB_InitComponent,"ax",%progbits
 296              		.align	2
 297              		.global	USB_InitComponent
 298              		.thumb
 299              		.thumb_func
 300              		.type	USB_InitComponent, %function
 301              	USB_InitComponent:
 302              	.LFB2:
 410:Generated_Source\PSoC5/USB.c **** 
 411:Generated_Source\PSoC5/USB.c **** 
 412:Generated_Source\PSoC5/USB.c **** /*******************************************************************************
 413:Generated_Source\PSoC5/USB.c **** * Function Name: USB_InitComponent
 414:Generated_Source\PSoC5/USB.c **** ****************************************************************************//**
 415:Generated_Source\PSoC5/USB.c **** *
 416:Generated_Source\PSoC5/USB.c **** *   This function initializes the component’s global variables and initiates
 417:Generated_Source\PSoC5/USB.c **** *   communication with the host by pull-up D+ line.
 418:Generated_Source\PSoC5/USB.c **** *
 419:Generated_Source\PSoC5/USB.c **** * \param device:
 420:Generated_Source\PSoC5/USB.c **** *   Contains the device number of the desired device descriptor. The device
 421:Generated_Source\PSoC5/USB.c **** *   number can be found in the Device Descriptor Tab of "Configure" dialog,
 422:Generated_Source\PSoC5/USB.c **** *   under the settings of desired Device Descriptor, in the *Device Number*
 423:Generated_Source\PSoC5/USB.c **** *   field.
 424:Generated_Source\PSoC5/USB.c **** *  \param mode:
 425:Generated_Source\PSoC5/USB.c **** *   The operating voltage. This determines whether the voltage regulator
 426:Generated_Source\PSoC5/USB.c **** *   is enabled for 5V operation or if pass through mode is used for 3.3V
 427:Generated_Source\PSoC5/USB.c **** *   operation. Symbolic names and their associated values are given in the
 428:Generated_Source\PSoC5/USB.c **** *   following list.
 429:Generated_Source\PSoC5/USB.c **** *
 430:Generated_Source\PSoC5/USB.c **** *       *USB_3V_OPERATION* - Disable voltage regulator and pass-
 431:Generated_Source\PSoC5/USB.c **** *                                      through Vcc for pull-up
 432:Generated_Source\PSoC5/USB.c **** *
 433:Generated_Source\PSoC5/USB.c **** *       *USB_5V_OPERATION* - Enable voltage regulator and use
 434:Generated_Source\PSoC5/USB.c **** *                                      regulator for pull-up
 435:Generated_Source\PSoC5/USB.c **** *
 436:Generated_Source\PSoC5/USB.c **** *       *USB_DWR_POWER_OPERATION* - Enable or disable the voltage
 437:Generated_Source\PSoC5/USB.c **** *                                      regulator depending on the power supply
 438:Generated_Source\PSoC5/USB.c **** *                                      voltage configuration in the DWR tab.
 439:Generated_Source\PSoC5/USB.c **** *                                      For PSoC 3/5LP devices, the VDDD supply
ARM GAS  C:\Users\214016~1\AppData\Local\Temp\ccpUOjiz.s 			page 14


 440:Generated_Source\PSoC5/USB.c **** *                                      voltage is considered and for PSoC 4A-L,
 441:Generated_Source\PSoC5/USB.c **** *                                      the VBUS supply voltage is considered.
 442:Generated_Source\PSoC5/USB.c **** *
 443:Generated_Source\PSoC5/USB.c **** * \globalvars
 444:Generated_Source\PSoC5/USB.c **** *   \ref USB_device
 445:Generated_Source\PSoC5/USB.c **** *   \ref USB_transferState
 446:Generated_Source\PSoC5/USB.c **** *   \ref USB_configuration
 447:Generated_Source\PSoC5/USB.c **** *   \ref USB_deviceStatus
 448:Generated_Source\PSoC5/USB.c **** *
 449:Generated_Source\PSoC5/USB.c **** *   \ref USB_deviceAddress - Contains the current device address. This
 450:Generated_Source\PSoC5/USB.c **** *       variable is initialized to zero in this API. The Host starts to communicate
 451:Generated_Source\PSoC5/USB.c **** *      to the device with address 0 and then sets it to a whatever value using a
 452:Generated_Source\PSoC5/USB.c **** *      SET_ADDRESS request.
 453:Generated_Source\PSoC5/USB.c **** *
 454:Generated_Source\PSoC5/USB.c **** *   \ref USB_lastPacketSize - Initialized to 0;
 455:Generated_Source\PSoC5/USB.c **** *
 456:Generated_Source\PSoC5/USB.c **** * \reentrant
 457:Generated_Source\PSoC5/USB.c **** *  No.
 458:Generated_Source\PSoC5/USB.c **** *
 459:Generated_Source\PSoC5/USB.c **** *******************************************************************************/
 460:Generated_Source\PSoC5/USB.c **** void USB_InitComponent(uint8 device, uint8 mode) 
 461:Generated_Source\PSoC5/USB.c **** {
 303              		.loc 1 461 0
 304              		.cfi_startproc
 305              		@ args = 0, pretend = 0, frame = 8
 306              		@ frame_needed = 1, uses_anonymous_args = 0
 307 0000 80B5     		push	{r7, lr}
 308              		.cfi_def_cfa_offset 8
 309              		.cfi_offset 7, -8
 310              		.cfi_offset 14, -4
 311 0002 82B0     		sub	sp, sp, #8
 312              		.cfi_def_cfa_offset 16
 313 0004 00AF     		add	r7, sp, #0
 314              		.cfi_def_cfa_register 7
 315 0006 0346     		mov	r3, r0
 316 0008 0A46     		mov	r2, r1
 317 000a FB71     		strb	r3, [r7, #7]
 318 000c 1346     		mov	r3, r2
 319 000e BB71     		strb	r3, [r7, #6]
 462:Generated_Source\PSoC5/USB.c ****     /* Initialize _hidProtocol variable to comply with
 463:Generated_Source\PSoC5/USB.c ****     *  HID 7.2.6 Set_Protocol Request:
 464:Generated_Source\PSoC5/USB.c ****     *  "When initialized, all devices default to report protocol."
 465:Generated_Source\PSoC5/USB.c ****     */
 466:Generated_Source\PSoC5/USB.c **** #if defined(USB_ENABLE_HID_CLASS)
 467:Generated_Source\PSoC5/USB.c ****     uint8 i;
 468:Generated_Source\PSoC5/USB.c **** 
 469:Generated_Source\PSoC5/USB.c ****     for (i = 0u; i < USB_MAX_INTERFACES_NUMBER; i++)
 470:Generated_Source\PSoC5/USB.c ****     {
 471:Generated_Source\PSoC5/USB.c ****         USB_hidProtocol[i] = USB_PROTOCOL_REPORT;
 472:Generated_Source\PSoC5/USB.c ****     }
 473:Generated_Source\PSoC5/USB.c **** #endif /* USB_ENABLE_HID_CLASS */
 474:Generated_Source\PSoC5/USB.c **** 
 475:Generated_Source\PSoC5/USB.c ****     /* Store device number to access descriptor. */
 476:Generated_Source\PSoC5/USB.c ****     USB_device = device;
 320              		.loc 1 476 0
 321 0010 2C4A     		ldr	r2, .L14
 322 0012 FB79     		ldrb	r3, [r7, #7]
ARM GAS  C:\Users\214016~1\AppData\Local\Temp\ccpUOjiz.s 			page 15


 323 0014 1370     		strb	r3, [r2]
 477:Generated_Source\PSoC5/USB.c **** 
 478:Generated_Source\PSoC5/USB.c ****     /* Reset component internal variables. */
 479:Generated_Source\PSoC5/USB.c ****     USB_transferState   = USB_TRANS_STATE_IDLE;
 324              		.loc 1 479 0
 325 0016 2C4B     		ldr	r3, .L14+4
 326 0018 0022     		movs	r2, #0
 327 001a 1A70     		strb	r2, [r3]
 480:Generated_Source\PSoC5/USB.c ****     USB_configurationChanged = 0u;
 328              		.loc 1 480 0
 329 001c 2B4B     		ldr	r3, .L14+8
 330 001e 0022     		movs	r2, #0
 331 0020 1A70     		strb	r2, [r3]
 481:Generated_Source\PSoC5/USB.c ****     USB_configuration   = 0u;
 332              		.loc 1 481 0
 333 0022 2B4B     		ldr	r3, .L14+12
 334 0024 0022     		movs	r2, #0
 335 0026 1A70     		strb	r2, [r3]
 482:Generated_Source\PSoC5/USB.c ****     USB_interfaceNumber = 0u;
 336              		.loc 1 482 0
 337 0028 2A4B     		ldr	r3, .L14+16
 338 002a 0022     		movs	r2, #0
 339 002c 1A70     		strb	r2, [r3]
 483:Generated_Source\PSoC5/USB.c ****     USB_deviceAddress   = 0u;
 340              		.loc 1 483 0
 341 002e 2A4B     		ldr	r3, .L14+20
 342 0030 0022     		movs	r2, #0
 343 0032 1A70     		strb	r2, [r3]
 484:Generated_Source\PSoC5/USB.c ****     USB_deviceStatus    = 0u;
 344              		.loc 1 484 0
 345 0034 294B     		ldr	r3, .L14+24
 346 0036 0022     		movs	r2, #0
 347 0038 1A70     		strb	r2, [r3]
 485:Generated_Source\PSoC5/USB.c ****     USB_lastPacketSize  = 0u;
 348              		.loc 1 485 0
 349 003a 294B     		ldr	r3, .L14+28
 350 003c 0022     		movs	r2, #0
 351 003e 1A70     		strb	r2, [r3]
 486:Generated_Source\PSoC5/USB.c **** 
 487:Generated_Source\PSoC5/USB.c ****     /* Enable component interrupts. */
 488:Generated_Source\PSoC5/USB.c **** #if (CY_PSOC4)
 489:Generated_Source\PSoC5/USB.c ****     CyIntEnable(USB_INTR_HI_VECT_NUM);
 490:Generated_Source\PSoC5/USB.c ****     CyIntEnable(USB_INTR_MED_VECT_NUM);
 491:Generated_Source\PSoC5/USB.c ****     CyIntEnable(USB_INTR_LO_VECT_NUM);
 492:Generated_Source\PSoC5/USB.c **** #else
 493:Generated_Source\PSoC5/USB.c ****     CyIntEnable(USB_BUS_RESET_VECT_NUM);
 352              		.loc 1 493 0
 353 0040 284B     		ldr	r3, .L14+32
 354 0042 4FF40002 		mov	r2, #8388608
 355 0046 1A60     		str	r2, [r3]
 494:Generated_Source\PSoC5/USB.c ****     CyIntEnable(USB_EP_0_VECT_NUM);
 356              		.loc 1 494 0
 357 0048 264B     		ldr	r3, .L14+32
 358 004a 4FF08072 		mov	r2, #16777216
 359 004e 1A60     		str	r2, [r3]
 495:Generated_Source\PSoC5/USB.c **** 
 496:Generated_Source\PSoC5/USB.c ****     #if (USB_SOF_ISR_ACTIVE)
ARM GAS  C:\Users\214016~1\AppData\Local\Temp\ccpUOjiz.s 			page 16


 497:Generated_Source\PSoC5/USB.c ****         CyIntEnable(USB_SOF_VECT_NUM);
 360              		.loc 1 497 0
 361 0050 244B     		ldr	r3, .L14+32
 362 0052 4FF40012 		mov	r2, #2097152
 363 0056 1A60     		str	r2, [r3]
 498:Generated_Source\PSoC5/USB.c ****     #endif /* (USB_SOF_ISR_ACTIVE) */
 499:Generated_Source\PSoC5/USB.c **** 
 500:Generated_Source\PSoC5/USB.c ****     #if (USB_EP1_ISR_ACTIVE)
 501:Generated_Source\PSoC5/USB.c ****         CyIntEnable(USB_EP_1_VECT_NUM);
 364              		.loc 1 501 0
 365 0058 224B     		ldr	r3, .L14+32
 366 005a 2022     		movs	r2, #32
 367 005c 1A60     		str	r2, [r3]
 502:Generated_Source\PSoC5/USB.c ****     #endif /* (USB_EP1_ISR_ACTIVE) */
 503:Generated_Source\PSoC5/USB.c **** 
 504:Generated_Source\PSoC5/USB.c ****     #if (USB_EP2_ISR_ACTIVE)
 505:Generated_Source\PSoC5/USB.c ****         CyIntEnable(USB_EP_2_VECT_NUM);
 368              		.loc 1 505 0
 369 005e 214B     		ldr	r3, .L14+32
 370 0060 4022     		movs	r2, #64
 371 0062 1A60     		str	r2, [r3]
 506:Generated_Source\PSoC5/USB.c ****     #endif /* (USB_EP5_ISR_ACTIVE) */
 507:Generated_Source\PSoC5/USB.c **** 
 508:Generated_Source\PSoC5/USB.c ****     #if (USB_EP3_ISR_ACTIVE)
 509:Generated_Source\PSoC5/USB.c ****         CyIntEnable(USB_EP_3_VECT_NUM);
 510:Generated_Source\PSoC5/USB.c ****     #endif /* (USB_EP5_ISR_ACTIVE) */
 511:Generated_Source\PSoC5/USB.c **** 
 512:Generated_Source\PSoC5/USB.c ****     #if (USB_EP4_ISR_ACTIVE)
 513:Generated_Source\PSoC5/USB.c ****         CyIntEnable(USB_EP_4_VECT_NUM);
 514:Generated_Source\PSoC5/USB.c ****     #endif /* (USB_EP5_ISR_ACTIVE) */
 515:Generated_Source\PSoC5/USB.c **** 
 516:Generated_Source\PSoC5/USB.c ****     #if (USB_EP5_ISR_ACTIVE)
 517:Generated_Source\PSoC5/USB.c ****         CyIntEnable(USB_EP_5_VECT_NUM);
 518:Generated_Source\PSoC5/USB.c ****     #endif /* (USB_EP5_ISR_ACTIVE) */
 519:Generated_Source\PSoC5/USB.c **** 
 520:Generated_Source\PSoC5/USB.c ****     #if (USB_EP6_ISR_ACTIVE)
 521:Generated_Source\PSoC5/USB.c ****         CyIntEnable(USB_EP_6_VECT_NUM);
 522:Generated_Source\PSoC5/USB.c ****     #endif /* USB_EP6_ISR_REMOVE */
 523:Generated_Source\PSoC5/USB.c **** 
 524:Generated_Source\PSoC5/USB.c ****     #if (USB_EP7_ISR_ACTIVE)
 525:Generated_Source\PSoC5/USB.c ****         CyIntEnable(USB_EP_7_VECT_NUM);
 526:Generated_Source\PSoC5/USB.c ****     #endif /* (USB_EP7_ISR_ACTIVE) */
 527:Generated_Source\PSoC5/USB.c **** 
 528:Generated_Source\PSoC5/USB.c ****     #if (USB_EP8_ISR_ACTIVE)
 529:Generated_Source\PSoC5/USB.c ****         CyIntEnable(USB_EP_8_VECT_NUM);
 530:Generated_Source\PSoC5/USB.c ****     #endif /* (USB_EP8_ISR_ACTIVE) */
 531:Generated_Source\PSoC5/USB.c **** #endif /* (CY_PSOC4) */
 532:Generated_Source\PSoC5/USB.c **** 
 533:Generated_Source\PSoC5/USB.c **** #if (USB_EP_MANAGEMENT_DMA && USB_ARB_ISR_ACTIVE)
 534:Generated_Source\PSoC5/USB.c ****     /* Enable ARB EP interrupt sources. */
 535:Generated_Source\PSoC5/USB.c ****     USB_ARB_INT_EN_REG = USB_DEFAULT_ARB_INT_EN;
 536:Generated_Source\PSoC5/USB.c **** 
 537:Generated_Source\PSoC5/USB.c ****     #if (CY_PSOC3 || CY_PSOC5)
 538:Generated_Source\PSoC5/USB.c ****         CyIntEnable(USB_ARB_VECT_NUM);
 539:Generated_Source\PSoC5/USB.c ****     #endif /* (CY_PSOC3 || CY_PSOC5) */
 540:Generated_Source\PSoC5/USB.c **** #endif   /* (USB_EP_MANAGEMENT_DMA && USB_ARB_ISR_ACTIVE) */
 541:Generated_Source\PSoC5/USB.c **** 
ARM GAS  C:\Users\214016~1\AppData\Local\Temp\ccpUOjiz.s 			page 17


 542:Generated_Source\PSoC5/USB.c **** /* Arbiter configuration for DMA transfers. */
 543:Generated_Source\PSoC5/USB.c **** #if (USB_EP_MANAGEMENT_DMA)
 544:Generated_Source\PSoC5/USB.c ****     /* Configure Arbiter for Manual or Auto DMA operation and clear configuration completion. */
 545:Generated_Source\PSoC5/USB.c ****     USB_ARB_CFG_REG = USB_DEFAULT_ARB_CFG;
 546:Generated_Source\PSoC5/USB.c **** 
 547:Generated_Source\PSoC5/USB.c ****     #if (CY_PSOC4)
 548:Generated_Source\PSoC5/USB.c ****         /* Enable DMA operation. */
 549:Generated_Source\PSoC5/USB.c ****         CyDmaEnable();
 550:Generated_Source\PSoC5/USB.c **** 
 551:Generated_Source\PSoC5/USB.c ****         #if (USB_EP_MANAGEMENT_DMA_AUTO)
 552:Generated_Source\PSoC5/USB.c ****             /* Change DMA priority to be highest. */
 553:Generated_Source\PSoC5/USB.c ****              CyIntSetPriority(CYDMA_INTR_NUMBER, USB_DMA_AUTO_INTR_PRIO);
 554:Generated_Source\PSoC5/USB.c ****         #endif /* (USB_EP_MANAGEMENT_DMA_AUTO) */
 555:Generated_Source\PSoC5/USB.c ****     #endif /* (CY_PSOC4) */
 556:Generated_Source\PSoC5/USB.c **** 
 557:Generated_Source\PSoC5/USB.c ****     #if (USB_EP_MANAGEMENT_DMA_AUTO)
 558:Generated_Source\PSoC5/USB.c ****         #if (CY_PSOC4)
 559:Generated_Source\PSoC5/USB.c ****             /* Enable DMA interrupt to handle DMA management. */
 560:Generated_Source\PSoC5/USB.c ****             CyIntEnable(CYDMA_INTR_NUMBER);
 561:Generated_Source\PSoC5/USB.c ****         #else
 562:Generated_Source\PSoC5/USB.c ****             #if (USB_EP_DMA_AUTO_OPT == 0u)
 563:Generated_Source\PSoC5/USB.c ****                 /* Initialize interrupts which handle verification of successful DMA transaction. *
 564:Generated_Source\PSoC5/USB.c ****                 USB_EP_DMA_Done_isr_StartEx(&USB_EP_DMA_DONE_ISR);
 565:Generated_Source\PSoC5/USB.c ****                 USB_EP17_DMA_Done_SR_InterruptEnable();
 566:Generated_Source\PSoC5/USB.c ****                 USB_EP8_DMA_Done_SR_InterruptEnable();
 567:Generated_Source\PSoC5/USB.c ****             #endif /* (USB_EP_DMA_AUTO_OPT == 0u) */
 568:Generated_Source\PSoC5/USB.c ****         #endif /* (CY_PSOC4) */
 569:Generated_Source\PSoC5/USB.c ****     #endif /* (USB_EP_MANAGEMENT_DMA_AUTO) */
 570:Generated_Source\PSoC5/USB.c **** #endif /* (USB_EP_MANAGEMENT_DMA) */
 571:Generated_Source\PSoC5/USB.c **** 
 572:Generated_Source\PSoC5/USB.c ****     /* Enable USB regulator depends on operation voltage. IMO Locking is enabled in Init(). */
 573:Generated_Source\PSoC5/USB.c ****     switch(mode)
 372              		.loc 1 573 0
 373 0064 BB79     		ldrb	r3, [r7, #6]	@ zero_extendqisi2
 374 0066 002B     		cmp	r3, #0
 375 0068 02D0     		beq	.L10
 376 006a 012B     		cmp	r3, #1
 377 006c 09D0     		beq	.L11
 378 006e 11E0     		b	.L13
 379              	.L10:
 574:Generated_Source\PSoC5/USB.c ****     {
 575:Generated_Source\PSoC5/USB.c ****     case USB_3V_OPERATION:
 576:Generated_Source\PSoC5/USB.c ****         /* Disable regulator for 3V operation. */
 577:Generated_Source\PSoC5/USB.c ****         USB_CR1_REG &= (uint8) ~USB_CR1_REG_ENABLE;
 380              		.loc 1 577 0
 381 0070 1D4A     		ldr	r2, .L14+36
 382 0072 1D4B     		ldr	r3, .L14+36
 383 0074 1B78     		ldrb	r3, [r3]
 384 0076 DBB2     		uxtb	r3, r3
 385 0078 23F00103 		bic	r3, r3, #1
 386 007c DBB2     		uxtb	r3, r3
 387 007e 1370     		strb	r3, [r2]
 578:Generated_Source\PSoC5/USB.c ****         break;
 388              		.loc 1 578 0
 389 0080 11E0     		b	.L12
 390              	.L11:
 579:Generated_Source\PSoC5/USB.c **** 
ARM GAS  C:\Users\214016~1\AppData\Local\Temp\ccpUOjiz.s 			page 18


 580:Generated_Source\PSoC5/USB.c ****     case USB_5V_OPERATION:
 581:Generated_Source\PSoC5/USB.c ****         /* Enable regulator for 5V operation. */
 582:Generated_Source\PSoC5/USB.c ****         USB_CR1_REG |= (uint8)  USB_CR1_REG_ENABLE;
 391              		.loc 1 582 0
 392 0082 194A     		ldr	r2, .L14+36
 393 0084 184B     		ldr	r3, .L14+36
 394 0086 1B78     		ldrb	r3, [r3]
 395 0088 DBB2     		uxtb	r3, r3
 396 008a 43F00103 		orr	r3, r3, #1
 397 008e DBB2     		uxtb	r3, r3
 398 0090 1370     		strb	r3, [r2]
 583:Generated_Source\PSoC5/USB.c ****         break;
 399              		.loc 1 583 0
 400 0092 08E0     		b	.L12
 401              	.L13:
 584:Generated_Source\PSoC5/USB.c **** 
 585:Generated_Source\PSoC5/USB.c ****     default: /* Check DWR settings of USB power supply. */
 586:Generated_Source\PSoC5/USB.c ****     #if (USB_VDDD_MV < USB_3500MV)
 587:Generated_Source\PSoC5/USB.c ****         /* Disable regulator for 3V operation. */
 588:Generated_Source\PSoC5/USB.c ****         USB_CR1_REG &= (uint8) ~USB_CR1_REG_ENABLE;
 589:Generated_Source\PSoC5/USB.c ****     #else
 590:Generated_Source\PSoC5/USB.c ****         /* Enable regulator for 5V operation. */
 591:Generated_Source\PSoC5/USB.c ****         USB_CR1_REG |= (uint8)  USB_CR1_REG_ENABLE;
 402              		.loc 1 591 0
 403 0094 144A     		ldr	r2, .L14+36
 404 0096 144B     		ldr	r3, .L14+36
 405 0098 1B78     		ldrb	r3, [r3]
 406 009a DBB2     		uxtb	r3, r3
 407 009c 43F00103 		orr	r3, r3, #1
 408 00a0 DBB2     		uxtb	r3, r3
 409 00a2 1370     		strb	r3, [r2]
 592:Generated_Source\PSoC5/USB.c ****     #endif /* (USB_VDDD_MV < USB_3500MV) */
 593:Generated_Source\PSoC5/USB.c ****         break;
 410              		.loc 1 593 0
 411 00a4 00BF     		nop
 412              	.L12:
 594:Generated_Source\PSoC5/USB.c ****     }
 595:Generated_Source\PSoC5/USB.c **** 
 596:Generated_Source\PSoC5/USB.c **** #if (CY_PSOC4)
 597:Generated_Source\PSoC5/USB.c ****     /* Clear bus activity. */
 598:Generated_Source\PSoC5/USB.c ****     USB_CR1_REG &= (uint32) ~USB_CR1_BUS_ACTIVITY;
 599:Generated_Source\PSoC5/USB.c **** 
 600:Generated_Source\PSoC5/USB.c ****     /* Clear EP0 count register. */
 601:Generated_Source\PSoC5/USB.c ****     USB_EP0_CNT_REG = USB_CLEAR_REG;
 602:Generated_Source\PSoC5/USB.c **** 
 603:Generated_Source\PSoC5/USB.c ****     /* Set EP0.CR: ACK Setup, NAK IN/OUT. */
 604:Generated_Source\PSoC5/USB.c ****     USB_EP0_CR_REG = USB_MODE_NAK_IN_OUT;
 605:Generated_Source\PSoC5/USB.c **** 
 606:Generated_Source\PSoC5/USB.c ****     #if (USB_LPM_ACTIVE)
 607:Generated_Source\PSoC5/USB.c ****         if (NULL != USB_GetBOSPtr())
 608:Generated_Source\PSoC5/USB.c ****         {
 609:Generated_Source\PSoC5/USB.c ****             /* Enable LPM and acknowledge LPM packets for active device.
 610:Generated_Source\PSoC5/USB.c ****             * Reset NYET_EN and SUB_RESP bits in the LPM_CTRL register.
 611:Generated_Source\PSoC5/USB.c ****             */
 612:Generated_Source\PSoC5/USB.c ****             USB_LPM_CTRL_REG = (USB_LPM_CTRL_LPM_EN | \
 613:Generated_Source\PSoC5/USB.c ****                                              USB_LPM_CTRL_LPM_ACK_RESP);
 614:Generated_Source\PSoC5/USB.c ****         }
ARM GAS  C:\Users\214016~1\AppData\Local\Temp\ccpUOjiz.s 			page 19


 615:Generated_Source\PSoC5/USB.c ****         else
 616:Generated_Source\PSoC5/USB.c ****         {
 617:Generated_Source\PSoC5/USB.c ****             /* Disable LPM for active device. */
 618:Generated_Source\PSoC5/USB.c ****             USB_LPM_CTRL_REG &= (uint32) ~USB_LPM_CTRL_LPM_EN;
 619:Generated_Source\PSoC5/USB.c ****         }
 620:Generated_Source\PSoC5/USB.c ****     #endif /* (USB_LPM_ACTIVE) */
 621:Generated_Source\PSoC5/USB.c **** 
 622:Generated_Source\PSoC5/USB.c ****     /* Enable device to responds to USB traffic with address 0. */
 623:Generated_Source\PSoC5/USB.c ****     USB_CR0_REG = USB_DEFUALT_CR0;
 624:Generated_Source\PSoC5/USB.c **** 
 625:Generated_Source\PSoC5/USB.c **** #else
 626:Generated_Source\PSoC5/USB.c ****     /* Set EP0.CR: ACK Setup, STALL IN/OUT. */
 627:Generated_Source\PSoC5/USB.c ****     USB_EP0_CR_REG = USB_MODE_STALL_IN_OUT;
 413              		.loc 1 627 0
 414 00a6 114B     		ldr	r3, .L14+40
 415 00a8 0322     		movs	r2, #3
 416 00aa 1A70     		strb	r2, [r3]
 628:Generated_Source\PSoC5/USB.c **** 
 629:Generated_Source\PSoC5/USB.c ****     /* Enable device to respond to USB traffic with address 0. */
 630:Generated_Source\PSoC5/USB.c ****     USB_CR0_REG = USB_DEFUALT_CR0;
 417              		.loc 1 630 0
 418 00ac 104B     		ldr	r3, .L14+44
 419 00ae 8022     		movs	r2, #128
 420 00b0 1A70     		strb	r2, [r3]
 631:Generated_Source\PSoC5/USB.c ****     CyDelayCycles(USB_WAIT_CR0_REG_STABILITY);
 421              		.loc 1 631 0
 422 00b2 0120     		movs	r0, #1
 423 00b4 FFF7FEFF 		bl	CyDelayCycles
 632:Generated_Source\PSoC5/USB.c **** #endif /* (CY_PSOC4) */
 633:Generated_Source\PSoC5/USB.c **** 
 634:Generated_Source\PSoC5/USB.c ****     /* Enable D+ pull-up and keep USB control on IO. */
 635:Generated_Source\PSoC5/USB.c ****     USB_USBIO_CR1_REG = USB_USBIO_CR1_USBPUEN;
 424              		.loc 1 635 0
 425 00b8 0E4B     		ldr	r3, .L14+48
 426 00ba 0422     		movs	r2, #4
 427 00bc 1A70     		strb	r2, [r3]
 636:Generated_Source\PSoC5/USB.c **** }
 428              		.loc 1 636 0
 429 00be 0837     		adds	r7, r7, #8
 430              		.cfi_def_cfa_offset 8
 431 00c0 BD46     		mov	sp, r7
 432              		.cfi_def_cfa_register 13
 433              		@ sp needed
 434 00c2 80BD     		pop	{r7, pc}
 435              	.L15:
 436              		.align	2
 437              	.L14:
 438 00c4 00000000 		.word	USB_device
 439 00c8 00000000 		.word	USB_transferState
 440 00cc 00000000 		.word	USB_configurationChanged
 441 00d0 00000000 		.word	USB_configuration
 442 00d4 00000000 		.word	USB_interfaceNumber
 443 00d8 00000000 		.word	USB_deviceAddress
 444 00dc 00000000 		.word	USB_deviceStatus
 445 00e0 00000000 		.word	USB_lastPacketSize
 446 00e4 00E100E0 		.word	-536813312
 447 00e8 09600040 		.word	1073766409
ARM GAS  C:\Users\214016~1\AppData\Local\Temp\ccpUOjiz.s 			page 20


 448 00ec 28600040 		.word	1073766440
 449 00f0 08600040 		.word	1073766408
 450 00f4 12600040 		.word	1073766418
 451              		.cfi_endproc
 452              	.LFE2:
 453              		.size	USB_InitComponent, .-USB_InitComponent
 454              		.section	.text.USB_ReInitComponent,"ax",%progbits
 455              		.align	2
 456              		.global	USB_ReInitComponent
 457              		.thumb
 458              		.thumb_func
 459              		.type	USB_ReInitComponent, %function
 460              	USB_ReInitComponent:
 461              	.LFB3:
 637:Generated_Source\PSoC5/USB.c **** 
 638:Generated_Source\PSoC5/USB.c **** 
 639:Generated_Source\PSoC5/USB.c **** /*******************************************************************************
 640:Generated_Source\PSoC5/USB.c **** * Function Name: USB_ReInitComponent
 641:Generated_Source\PSoC5/USB.c **** ****************************************************************************//**
 642:Generated_Source\PSoC5/USB.c **** *
 643:Generated_Source\PSoC5/USB.c **** *  This function reinitialize the component configuration and is
 644:Generated_Source\PSoC5/USB.c **** *  intend to be called from the Reset interrupt.
 645:Generated_Source\PSoC5/USB.c **** *
 646:Generated_Source\PSoC5/USB.c **** * \globalvars
 647:Generated_Source\PSoC5/USB.c **** *   USB_device - Contains the device number of the desired Device
 648:Generated_Source\PSoC5/USB.c **** *        Descriptor. The device number can be found in the Device Descriptor tab
 649:Generated_Source\PSoC5/USB.c **** *       of the Configure dialog, under the settings of the desired Device Descriptor,
 650:Generated_Source\PSoC5/USB.c **** *       in the Device Number field.
 651:Generated_Source\PSoC5/USB.c **** *   USB_transferState - This variable is used by the communication
 652:Generated_Source\PSoC5/USB.c **** *       functions to handle the current transfer state. Initialized to
 653:Generated_Source\PSoC5/USB.c **** *       TRANS_STATE_IDLE in this API.
 654:Generated_Source\PSoC5/USB.c **** *   USB_configuration - Contains the current configuration number
 655:Generated_Source\PSoC5/USB.c **** *       set by the Host using a SET_CONFIGURATION request.
 656:Generated_Source\PSoC5/USB.c **** *       Initialized to zero in this API.
 657:Generated_Source\PSoC5/USB.c **** *   USB_deviceAddress - Contains the current device address. This
 658:Generated_Source\PSoC5/USB.c **** *       variable is initialized to zero in this API. The Host starts to communicate
 659:Generated_Source\PSoC5/USB.c **** *      to the device with address 0 and then sets it to a whatever value using
 660:Generated_Source\PSoC5/USB.c **** *      a SET_ADDRESS request.
 661:Generated_Source\PSoC5/USB.c **** *   USB_deviceStatus - Initialized to 0.
 662:Generated_Source\PSoC5/USB.c **** *       This is a two-bit variable which contains the power status in the first bit
 663:Generated_Source\PSoC5/USB.c **** *       (DEVICE_STATUS_BUS_POWERED or DEVICE_STATUS_SELF_POWERED) and the remote
 664:Generated_Source\PSoC5/USB.c **** *       wakeup status (DEVICE_STATUS_REMOTE_WAKEUP) in the second bit.
 665:Generated_Source\PSoC5/USB.c **** *   USB_lastPacketSize - Initialized to 0;
 666:Generated_Source\PSoC5/USB.c **** *
 667:Generated_Source\PSoC5/USB.c **** * \reentrant
 668:Generated_Source\PSoC5/USB.c **** *  No.
 669:Generated_Source\PSoC5/USB.c **** *
 670:Generated_Source\PSoC5/USB.c **** *******************************************************************************/
 671:Generated_Source\PSoC5/USB.c **** void USB_ReInitComponent(void) 
 672:Generated_Source\PSoC5/USB.c **** {
 462              		.loc 1 672 0
 463              		.cfi_startproc
 464              		@ args = 0, pretend = 0, frame = 0
 465              		@ frame_needed = 1, uses_anonymous_args = 0
 466              		@ link register save eliminated.
 467 0000 80B4     		push	{r7}
 468              		.cfi_def_cfa_offset 4
ARM GAS  C:\Users\214016~1\AppData\Local\Temp\ccpUOjiz.s 			page 21


 469              		.cfi_offset 7, -4
 470 0002 00AF     		add	r7, sp, #0
 471              		.cfi_def_cfa_register 7
 673:Generated_Source\PSoC5/USB.c ****     /* Initialize _hidProtocol variable to comply with HID 7.2.6 Set_Protocol
 674:Generated_Source\PSoC5/USB.c ****     *  Request: "When initialized, all devices default to report protocol."
 675:Generated_Source\PSoC5/USB.c ****     */
 676:Generated_Source\PSoC5/USB.c **** #if defined(USB_ENABLE_HID_CLASS)
 677:Generated_Source\PSoC5/USB.c ****     uint8 i;
 678:Generated_Source\PSoC5/USB.c **** 
 679:Generated_Source\PSoC5/USB.c ****     for (i = 0u; i < USB_MAX_INTERFACES_NUMBER; i++)
 680:Generated_Source\PSoC5/USB.c ****     {
 681:Generated_Source\PSoC5/USB.c ****         USB_hidProtocol[i] = USB_PROTOCOL_REPORT;
 682:Generated_Source\PSoC5/USB.c ****     }
 683:Generated_Source\PSoC5/USB.c **** #endif /* USB_ENABLE_HID_CLASS */
 684:Generated_Source\PSoC5/USB.c **** 
 685:Generated_Source\PSoC5/USB.c ****     /* Reset component internal variables. */
 686:Generated_Source\PSoC5/USB.c ****     USB_transferState   = USB_TRANS_STATE_IDLE;
 472              		.loc 1 686 0
 473 0004 0F4B     		ldr	r3, .L17
 474 0006 0022     		movs	r2, #0
 475 0008 1A70     		strb	r2, [r3]
 687:Generated_Source\PSoC5/USB.c ****     USB_configurationChanged = 0u;
 476              		.loc 1 687 0
 477 000a 0F4B     		ldr	r3, .L17+4
 478 000c 0022     		movs	r2, #0
 479 000e 1A70     		strb	r2, [r3]
 688:Generated_Source\PSoC5/USB.c ****     USB_configuration   = 0u;
 480              		.loc 1 688 0
 481 0010 0E4B     		ldr	r3, .L17+8
 482 0012 0022     		movs	r2, #0
 483 0014 1A70     		strb	r2, [r3]
 689:Generated_Source\PSoC5/USB.c ****     USB_interfaceNumber = 0u;
 484              		.loc 1 689 0
 485 0016 0E4B     		ldr	r3, .L17+12
 486 0018 0022     		movs	r2, #0
 487 001a 1A70     		strb	r2, [r3]
 690:Generated_Source\PSoC5/USB.c ****     USB_deviceAddress   = 0u;
 488              		.loc 1 690 0
 489 001c 0D4B     		ldr	r3, .L17+16
 490 001e 0022     		movs	r2, #0
 491 0020 1A70     		strb	r2, [r3]
 691:Generated_Source\PSoC5/USB.c ****     USB_deviceStatus    = 0u;
 492              		.loc 1 691 0
 493 0022 0D4B     		ldr	r3, .L17+20
 494 0024 0022     		movs	r2, #0
 495 0026 1A70     		strb	r2, [r3]
 692:Generated_Source\PSoC5/USB.c ****     USB_lastPacketSize  = 0u;
 496              		.loc 1 692 0
 497 0028 0C4B     		ldr	r3, .L17+24
 498 002a 0022     		movs	r2, #0
 499 002c 1A70     		strb	r2, [r3]
 693:Generated_Source\PSoC5/USB.c **** 
 694:Generated_Source\PSoC5/USB.c **** #if (CY_PSOC4)
 695:Generated_Source\PSoC5/USB.c ****     /* Set EP0.CR: ACK Setup, NAK IN/OUT. */
 696:Generated_Source\PSoC5/USB.c ****     USB_EP0_CR_REG = USB_MODE_NAK_IN_OUT;
 697:Generated_Source\PSoC5/USB.c **** #else
 698:Generated_Source\PSoC5/USB.c ****     /* Set EP0.CR: ACK Setup, STALL IN/OUT. */
ARM GAS  C:\Users\214016~1\AppData\Local\Temp\ccpUOjiz.s 			page 22


 699:Generated_Source\PSoC5/USB.c ****     USB_EP0_CR_REG = USB_MODE_STALL_IN_OUT;
 500              		.loc 1 699 0
 501 002e 0C4B     		ldr	r3, .L17+28
 502 0030 0322     		movs	r2, #3
 503 0032 1A70     		strb	r2, [r3]
 700:Generated_Source\PSoC5/USB.c **** #endif /* (CY_PSOC4) */
 701:Generated_Source\PSoC5/USB.c **** 
 702:Generated_Source\PSoC5/USB.c ****     /* Enable device to respond to USB traffic with address 0. */
 703:Generated_Source\PSoC5/USB.c ****     USB_CR0_REG = USB_DEFUALT_CR0;
 504              		.loc 1 703 0
 505 0034 0B4B     		ldr	r3, .L17+32
 506 0036 8022     		movs	r2, #128
 507 0038 1A70     		strb	r2, [r3]
 704:Generated_Source\PSoC5/USB.c **** }
 508              		.loc 1 704 0
 509 003a BD46     		mov	sp, r7
 510              		.cfi_def_cfa_register 13
 511              		@ sp needed
 512 003c 5DF8047B 		ldr	r7, [sp], #4
 513              		.cfi_restore 7
 514              		.cfi_def_cfa_offset 0
 515 0040 7047     		bx	lr
 516              	.L18:
 517 0042 00BF     		.align	2
 518              	.L17:
 519 0044 00000000 		.word	USB_transferState
 520 0048 00000000 		.word	USB_configurationChanged
 521 004c 00000000 		.word	USB_configuration
 522 0050 00000000 		.word	USB_interfaceNumber
 523 0054 00000000 		.word	USB_deviceAddress
 524 0058 00000000 		.word	USB_deviceStatus
 525 005c 00000000 		.word	USB_lastPacketSize
 526 0060 28600040 		.word	1073766440
 527 0064 08600040 		.word	1073766408
 528              		.cfi_endproc
 529              	.LFE3:
 530              		.size	USB_ReInitComponent, .-USB_ReInitComponent
 531              		.section	.text.USB_Stop,"ax",%progbits
 532              		.align	2
 533              		.global	USB_Stop
 534              		.thumb
 535              		.thumb_func
 536              		.type	USB_Stop, %function
 537              	USB_Stop:
 538              	.LFB4:
 705:Generated_Source\PSoC5/USB.c **** 
 706:Generated_Source\PSoC5/USB.c **** 
 707:Generated_Source\PSoC5/USB.c **** /*******************************************************************************
 708:Generated_Source\PSoC5/USB.c **** * Function Name: USB_Stop
 709:Generated_Source\PSoC5/USB.c **** ****************************************************************************//**
 710:Generated_Source\PSoC5/USB.c **** *
 711:Generated_Source\PSoC5/USB.c **** *  This function shuts down the USB function including to release
 712:Generated_Source\PSoC5/USB.c **** *  the D+ pull-up and disabling the SIE.
 713:Generated_Source\PSoC5/USB.c **** *
 714:Generated_Source\PSoC5/USB.c **** * \globalvars
 715:Generated_Source\PSoC5/USB.c **** *   \ref USB_configuration
 716:Generated_Source\PSoC5/USB.c **** *
ARM GAS  C:\Users\214016~1\AppData\Local\Temp\ccpUOjiz.s 			page 23


 717:Generated_Source\PSoC5/USB.c **** *   USB_deviceAddress - Contains the current device address. This
 718:Generated_Source\PSoC5/USB.c **** *       variable is initialized to zero in this API. The Host starts to communicate
 719:Generated_Source\PSoC5/USB.c **** *      to the device with address 0 and then sets it to a whatever value using
 720:Generated_Source\PSoC5/USB.c **** *      a SET_ADDRESS request.
 721:Generated_Source\PSoC5/USB.c **** *
 722:Generated_Source\PSoC5/USB.c **** *   \ref USB_deviceStatus
 723:Generated_Source\PSoC5/USB.c **** *
 724:Generated_Source\PSoC5/USB.c **** *   \ref USB_configurationChanged
 725:Generated_Source\PSoC5/USB.c **** *
 726:Generated_Source\PSoC5/USB.c **** *   USB_intiVar -  This variable is set to zero
 727:Generated_Source\PSoC5/USB.c **** *
 728:Generated_Source\PSoC5/USB.c **** *******************************************************************************/
 729:Generated_Source\PSoC5/USB.c **** void USB_Stop(void) 
 730:Generated_Source\PSoC5/USB.c **** {
 539              		.loc 1 730 0
 540              		.cfi_startproc
 541              		@ args = 0, pretend = 0, frame = 8
 542              		@ frame_needed = 1, uses_anonymous_args = 0
 543 0000 80B5     		push	{r7, lr}
 544              		.cfi_def_cfa_offset 8
 545              		.cfi_offset 7, -8
 546              		.cfi_offset 14, -4
 547 0002 82B0     		sub	sp, sp, #8
 548              		.cfi_def_cfa_offset 16
 549 0004 00AF     		add	r7, sp, #0
 550              		.cfi_def_cfa_register 7
 731:Generated_Source\PSoC5/USB.c ****     uint8 enableInterrupts;
 732:Generated_Source\PSoC5/USB.c **** 
 733:Generated_Source\PSoC5/USB.c **** #if (USB_EP_MANAGEMENT_DMA)
 734:Generated_Source\PSoC5/USB.c ****     /* Stop all DMA channels. */
 735:Generated_Source\PSoC5/USB.c ****     USB_Stop_DMA(USB_MAX_EP);
 736:Generated_Source\PSoC5/USB.c **** #endif /* (USB_EP_MANAGEMENT_DMA) */
 737:Generated_Source\PSoC5/USB.c **** 
 738:Generated_Source\PSoC5/USB.c ****     enableInterrupts = CyEnterCriticalSection();
 551              		.loc 1 738 0
 552 0006 FFF7FEFF 		bl	CyEnterCriticalSection
 553 000a 0346     		mov	r3, r0
 554 000c FB71     		strb	r3, [r7, #7]
 739:Generated_Source\PSoC5/USB.c **** 
 740:Generated_Source\PSoC5/USB.c ****     /* Disable USB IP to respond to USB traffic. */
 741:Generated_Source\PSoC5/USB.c ****     USB_CR0_REG &= (uint8) ~USB_CR0_ENABLE;
 555              		.loc 1 741 0
 556 000e 304A     		ldr	r2, .L20
 557 0010 2F4B     		ldr	r3, .L20
 558 0012 1B78     		ldrb	r3, [r3]
 559 0014 DBB2     		uxtb	r3, r3
 560 0016 03F07F03 		and	r3, r3, #127
 561 001a DBB2     		uxtb	r3, r3
 562 001c 1370     		strb	r3, [r2]
 742:Generated_Source\PSoC5/USB.c **** 
 743:Generated_Source\PSoC5/USB.c ****     /* Disable D+ pull-up. */
 744:Generated_Source\PSoC5/USB.c ****     USB_USBIO_CR1_REG &= (uint8) ~ USB_USBIO_CR1_USBPUEN;
 563              		.loc 1 744 0
 564 001e 2D4A     		ldr	r2, .L20+4
 565 0020 2C4B     		ldr	r3, .L20+4
 566 0022 1B78     		ldrb	r3, [r3]
 567 0024 DBB2     		uxtb	r3, r3
ARM GAS  C:\Users\214016~1\AppData\Local\Temp\ccpUOjiz.s 			page 24


 568 0026 23F00403 		bic	r3, r3, #4
 569 002a DBB2     		uxtb	r3, r3
 570 002c 1370     		strb	r3, [r2]
 745:Generated_Source\PSoC5/USB.c **** 
 746:Generated_Source\PSoC5/USB.c **** #if (CY_PSOC4)
 747:Generated_Source\PSoC5/USB.c ****     /* Disable USBFS block. */
 748:Generated_Source\PSoC5/USB.c ****     USB_POWER_CTRL_REG &= (uint32) ~USB_POWER_CTRL_ENABLE;
 749:Generated_Source\PSoC5/USB.c **** #else
 750:Generated_Source\PSoC5/USB.c ****     /* Clear power active and standby mode templates. */
 751:Generated_Source\PSoC5/USB.c ****     USB_PM_ACT_CFG_REG  &= (uint8) ~USB_PM_ACT_EN_FSUSB;
 571              		.loc 1 751 0
 572 002e 2A4A     		ldr	r2, .L20+8
 573 0030 294B     		ldr	r3, .L20+8
 574 0032 1B78     		ldrb	r3, [r3]
 575 0034 DBB2     		uxtb	r3, r3
 576 0036 23F00103 		bic	r3, r3, #1
 577 003a DBB2     		uxtb	r3, r3
 578 003c 1370     		strb	r3, [r2]
 752:Generated_Source\PSoC5/USB.c ****     USB_PM_STBY_CFG_REG &= (uint8) ~USB_PM_STBY_EN_FSUSB;
 579              		.loc 1 752 0
 580 003e 274A     		ldr	r2, .L20+12
 581 0040 264B     		ldr	r3, .L20+12
 582 0042 1B78     		ldrb	r3, [r3]
 583 0044 DBB2     		uxtb	r3, r3
 584 0046 23F00103 		bic	r3, r3, #1
 585 004a DBB2     		uxtb	r3, r3
 586 004c 1370     		strb	r3, [r2]
 753:Generated_Source\PSoC5/USB.c **** 
 754:Generated_Source\PSoC5/USB.c ****     /* Ensure single-ended disable bits are high (PRT15.INP_DIS[7:6])
 755:Generated_Source\PSoC5/USB.c ****      * (input receiver disabled). */
 756:Generated_Source\PSoC5/USB.c ****     USB_DM_INP_DIS_REG |= (uint8) USB_DM_MASK;
 587              		.loc 1 756 0
 588 004e 244A     		ldr	r2, .L20+16
 589 0050 234B     		ldr	r3, .L20+16
 590 0052 1B78     		ldrb	r3, [r3]
 591 0054 DBB2     		uxtb	r3, r3
 592 0056 63F07F03 		orn	r3, r3, #127
 593 005a DBB2     		uxtb	r3, r3
 594 005c 1370     		strb	r3, [r2]
 757:Generated_Source\PSoC5/USB.c ****     USB_DP_INP_DIS_REG |= (uint8) USB_DP_MASK;
 595              		.loc 1 757 0
 596 005e 204A     		ldr	r2, .L20+16
 597 0060 1F4B     		ldr	r3, .L20+16
 598 0062 1B78     		ldrb	r3, [r3]
 599 0064 DBB2     		uxtb	r3, r3
 600 0066 43F04003 		orr	r3, r3, #64
 601 006a DBB2     		uxtb	r3, r3
 602 006c 1370     		strb	r3, [r2]
 758:Generated_Source\PSoC5/USB.c **** 
 759:Generated_Source\PSoC5/USB.c **** #endif /* (CY_PSOC4) */
 760:Generated_Source\PSoC5/USB.c **** 
 761:Generated_Source\PSoC5/USB.c ****     CyExitCriticalSection(enableInterrupts);
 603              		.loc 1 761 0
 604 006e FB79     		ldrb	r3, [r7, #7]	@ zero_extendqisi2
 605 0070 1846     		mov	r0, r3
 606 0072 FFF7FEFF 		bl	CyExitCriticalSection
 762:Generated_Source\PSoC5/USB.c **** 
ARM GAS  C:\Users\214016~1\AppData\Local\Temp\ccpUOjiz.s 			page 25


 763:Generated_Source\PSoC5/USB.c ****     /* Disable component interrupts. */
 764:Generated_Source\PSoC5/USB.c **** #if (CY_PSOC4)
 765:Generated_Source\PSoC5/USB.c ****     CyIntDisable(USB_INTR_HI_VECT_NUM);
 766:Generated_Source\PSoC5/USB.c ****     CyIntDisable(USB_INTR_LO_VECT_NUM);
 767:Generated_Source\PSoC5/USB.c ****     CyIntDisable(USB_INTR_MED_VECT_NUM);
 768:Generated_Source\PSoC5/USB.c **** #else
 769:Generated_Source\PSoC5/USB.c **** 
 770:Generated_Source\PSoC5/USB.c ****     CyIntDisable(USB_BUS_RESET_VECT_NUM);
 607              		.loc 1 770 0
 608 0076 1B4B     		ldr	r3, .L20+20
 609 0078 4FF40002 		mov	r2, #8388608
 610 007c 1A60     		str	r2, [r3]
 771:Generated_Source\PSoC5/USB.c ****     CyIntDisable(USB_EP_0_VECT_NUM);
 611              		.loc 1 771 0
 612 007e 194B     		ldr	r3, .L20+20
 613 0080 4FF08072 		mov	r2, #16777216
 614 0084 1A60     		str	r2, [r3]
 772:Generated_Source\PSoC5/USB.c **** 
 773:Generated_Source\PSoC5/USB.c ****     #if (USB_SOF_ISR_ACTIVE)
 774:Generated_Source\PSoC5/USB.c ****         CyIntDisable(USB_SOF_VECT_NUM);
 615              		.loc 1 774 0
 616 0086 174B     		ldr	r3, .L20+20
 617 0088 4FF40012 		mov	r2, #2097152
 618 008c 1A60     		str	r2, [r3]
 775:Generated_Source\PSoC5/USB.c ****     #endif /* (USB_SOF_ISR_ACTIVE) */
 776:Generated_Source\PSoC5/USB.c **** 
 777:Generated_Source\PSoC5/USB.c ****     #if (USB_EP1_ISR_ACTIVE)
 778:Generated_Source\PSoC5/USB.c ****         CyIntDisable(USB_EP_1_VECT_NUM);
 619              		.loc 1 778 0
 620 008e 154B     		ldr	r3, .L20+20
 621 0090 2022     		movs	r2, #32
 622 0092 1A60     		str	r2, [r3]
 779:Generated_Source\PSoC5/USB.c ****     #endif /* (USB_EP1_ISR_ACTIVE) */
 780:Generated_Source\PSoC5/USB.c **** 
 781:Generated_Source\PSoC5/USB.c ****     #if (USB_EP2_ISR_ACTIVE)
 782:Generated_Source\PSoC5/USB.c ****         CyIntDisable(USB_EP_2_VECT_NUM);
 623              		.loc 1 782 0
 624 0094 134B     		ldr	r3, .L20+20
 625 0096 4022     		movs	r2, #64
 626 0098 1A60     		str	r2, [r3]
 783:Generated_Source\PSoC5/USB.c ****     #endif /* (USB_EP2_ISR_ACTIVE) */
 784:Generated_Source\PSoC5/USB.c **** 
 785:Generated_Source\PSoC5/USB.c ****     #if (USB_EP3_ISR_ACTIVE)
 786:Generated_Source\PSoC5/USB.c ****         CyIntDisable(USB_EP_3_VECT_NUM);
 787:Generated_Source\PSoC5/USB.c ****     #endif /* (USB_EP3_ISR_ACTIVE) */
 788:Generated_Source\PSoC5/USB.c **** 
 789:Generated_Source\PSoC5/USB.c ****     #if (USB_EP4_ISR_ACTIVE)
 790:Generated_Source\PSoC5/USB.c ****         CyIntDisable(USB_EP_4_VECT_NUM);
 791:Generated_Source\PSoC5/USB.c ****     #endif /* (USB_EP4_ISR_ACTIVE) */
 792:Generated_Source\PSoC5/USB.c **** 
 793:Generated_Source\PSoC5/USB.c ****     #if (USB_EP5_ISR_ACTIVE)
 794:Generated_Source\PSoC5/USB.c ****         CyIntDisable(USB_EP_5_VECT_NUM);
 795:Generated_Source\PSoC5/USB.c ****     #endif /* (USB_EP5_ISR_ACTIVE) */
 796:Generated_Source\PSoC5/USB.c **** 
 797:Generated_Source\PSoC5/USB.c ****     #if (USB_EP6_ISR_ACTIVE)
 798:Generated_Source\PSoC5/USB.c ****         CyIntDisable(USB_EP_6_VECT_NUM);
 799:Generated_Source\PSoC5/USB.c ****     #endif /* USB_EP6_ISR_REMOVE */
ARM GAS  C:\Users\214016~1\AppData\Local\Temp\ccpUOjiz.s 			page 26


 800:Generated_Source\PSoC5/USB.c **** 
 801:Generated_Source\PSoC5/USB.c ****     #if (USB_EP7_ISR_ACTIVE)
 802:Generated_Source\PSoC5/USB.c ****         CyIntDisable(USB_EP_7_VECT_NUM);
 803:Generated_Source\PSoC5/USB.c ****     #endif /* (USB_EP7_ISR_ACTIVE) */
 804:Generated_Source\PSoC5/USB.c **** 
 805:Generated_Source\PSoC5/USB.c ****     #if (USB_EP8_ISR_ACTIVE)
 806:Generated_Source\PSoC5/USB.c ****         CyIntDisable(USB_EP_8_VECT_NUM);
 807:Generated_Source\PSoC5/USB.c ****     #endif /* (USB_EP8_ISR_ACTIVE) */
 808:Generated_Source\PSoC5/USB.c **** 
 809:Generated_Source\PSoC5/USB.c ****     #if (USB_DP_ISR_ACTIVE)
 810:Generated_Source\PSoC5/USB.c ****         /* Clear active mode Dp interrupt source history. */
 811:Generated_Source\PSoC5/USB.c ****         (void) USB_Dp_ClearInterrupt();
 627              		.loc 1 811 0
 628 009a FFF7FEFF 		bl	USB_Dp_ClearInterrupt
 812:Generated_Source\PSoC5/USB.c ****         CyIntClearPending(USB_DP_INTC_VECT_NUM);
 629              		.loc 1 812 0
 630 009e 124B     		ldr	r3, .L20+24
 631 00a0 4FF48052 		mov	r2, #4096
 632 00a4 1A60     		str	r2, [r3]
 813:Generated_Source\PSoC5/USB.c ****     #endif /* (USB_DP_ISR_ACTIVE). */
 814:Generated_Source\PSoC5/USB.c **** 
 815:Generated_Source\PSoC5/USB.c **** #endif /* (CY_PSOC4) */
 816:Generated_Source\PSoC5/USB.c **** 
 817:Generated_Source\PSoC5/USB.c ****     /* Reset component internal variables. */
 818:Generated_Source\PSoC5/USB.c ****     USB_configurationChanged = 0u;
 633              		.loc 1 818 0
 634 00a6 114B     		ldr	r3, .L20+28
 635 00a8 0022     		movs	r2, #0
 636 00aa 1A70     		strb	r2, [r3]
 819:Generated_Source\PSoC5/USB.c ****     USB_configuration   = 0u;
 637              		.loc 1 819 0
 638 00ac 104B     		ldr	r3, .L20+32
 639 00ae 0022     		movs	r2, #0
 640 00b0 1A70     		strb	r2, [r3]
 820:Generated_Source\PSoC5/USB.c ****     USB_interfaceNumber = 0u;
 641              		.loc 1 820 0
 642 00b2 104B     		ldr	r3, .L20+36
 643 00b4 0022     		movs	r2, #0
 644 00b6 1A70     		strb	r2, [r3]
 821:Generated_Source\PSoC5/USB.c ****     USB_deviceAddress   = 0u;
 645              		.loc 1 821 0
 646 00b8 0F4B     		ldr	r3, .L20+40
 647 00ba 0022     		movs	r2, #0
 648 00bc 1A70     		strb	r2, [r3]
 822:Generated_Source\PSoC5/USB.c ****     USB_deviceStatus    = 0u;
 649              		.loc 1 822 0
 650 00be 0F4B     		ldr	r3, .L20+44
 651 00c0 0022     		movs	r2, #0
 652 00c2 1A70     		strb	r2, [r3]
 823:Generated_Source\PSoC5/USB.c **** 
 824:Generated_Source\PSoC5/USB.c ****     /* It is mandatory for correct device startup. */
 825:Generated_Source\PSoC5/USB.c ****     USB_initVar = 0u;
 653              		.loc 1 825 0
 654 00c4 0E4B     		ldr	r3, .L20+48
 655 00c6 0022     		movs	r2, #0
 656 00c8 1A70     		strb	r2, [r3]
 826:Generated_Source\PSoC5/USB.c **** }
ARM GAS  C:\Users\214016~1\AppData\Local\Temp\ccpUOjiz.s 			page 27


 657              		.loc 1 826 0
 658 00ca 0837     		adds	r7, r7, #8
 659              		.cfi_def_cfa_offset 8
 660 00cc BD46     		mov	sp, r7
 661              		.cfi_def_cfa_register 13
 662              		@ sp needed
 663 00ce 80BD     		pop	{r7, pc}
 664              	.L21:
 665              		.align	2
 666              	.L20:
 667 00d0 08600040 		.word	1073766408
 668 00d4 12600040 		.word	1073766418
 669 00d8 A5430040 		.word	1073759141
 670 00dc B5430040 		.word	1073759157
 671 00e0 F8510040 		.word	1073762808
 672 00e4 80E100E0 		.word	-536813184
 673 00e8 80E200E0 		.word	-536812928
 674 00ec 00000000 		.word	USB_configurationChanged
 675 00f0 00000000 		.word	USB_configuration
 676 00f4 00000000 		.word	USB_interfaceNumber
 677 00f8 00000000 		.word	USB_deviceAddress
 678 00fc 00000000 		.word	USB_deviceStatus
 679 0100 00000000 		.word	USB_initVar
 680              		.cfi_endproc
 681              	.LFE4:
 682              		.size	USB_Stop, .-USB_Stop
 683              		.section	.text.USB_CheckActivity,"ax",%progbits
 684              		.align	2
 685              		.global	USB_CheckActivity
 686              		.thumb
 687              		.thumb_func
 688              		.type	USB_CheckActivity, %function
 689              	USB_CheckActivity:
 690              	.LFB5:
 827:Generated_Source\PSoC5/USB.c **** 
 828:Generated_Source\PSoC5/USB.c **** 
 829:Generated_Source\PSoC5/USB.c **** /*******************************************************************************
 830:Generated_Source\PSoC5/USB.c **** * Function Name: USB_CheckActivity
 831:Generated_Source\PSoC5/USB.c **** ****************************************************************************//**
 832:Generated_Source\PSoC5/USB.c **** *
 833:Generated_Source\PSoC5/USB.c **** *  This function returns the activity status of the bus. It clears the hardware
 834:Generated_Source\PSoC5/USB.c **** *  status to provide updated status on the next call of this function. It
 835:Generated_Source\PSoC5/USB.c **** *  provides a way to determine whether any USB bus activity occurred. The
 836:Generated_Source\PSoC5/USB.c **** *  application should use this function to determine if the USB suspend
 837:Generated_Source\PSoC5/USB.c **** *  conditions are met.
 838:Generated_Source\PSoC5/USB.c **** *
 839:Generated_Source\PSoC5/USB.c **** *
 840:Generated_Source\PSoC5/USB.c **** * \return
 841:Generated_Source\PSoC5/USB.c **** *  cystatus: Status of the bus since the last call of the function.
 842:Generated_Source\PSoC5/USB.c **** *  Return Value |   Description
 843:Generated_Source\PSoC5/USB.c **** *  -------------|---------------------------------------------------------------
 844:Generated_Source\PSoC5/USB.c **** *  1            |Bus activity was detected since the last call to this function
 845:Generated_Source\PSoC5/USB.c **** *  0            |Bus activity was not detected since the last call to this function
 846:Generated_Source\PSoC5/USB.c **** *
 847:Generated_Source\PSoC5/USB.c **** *
 848:Generated_Source\PSoC5/USB.c **** *******************************************************************************/
 849:Generated_Source\PSoC5/USB.c **** uint8 USB_CheckActivity(void) 
ARM GAS  C:\Users\214016~1\AppData\Local\Temp\ccpUOjiz.s 			page 28


 850:Generated_Source\PSoC5/USB.c **** {
 691              		.loc 1 850 0
 692              		.cfi_startproc
 693              		@ args = 0, pretend = 0, frame = 8
 694              		@ frame_needed = 1, uses_anonymous_args = 0
 695              		@ link register save eliminated.
 696 0000 80B4     		push	{r7}
 697              		.cfi_def_cfa_offset 4
 698              		.cfi_offset 7, -4
 699 0002 83B0     		sub	sp, sp, #12
 700              		.cfi_def_cfa_offset 16
 701 0004 00AF     		add	r7, sp, #0
 702              		.cfi_def_cfa_register 7
 851:Generated_Source\PSoC5/USB.c ****     uint8 cr1Reg = USB_CR1_REG;
 703              		.loc 1 851 0
 704 0006 0B4B     		ldr	r3, .L26
 705 0008 1B78     		ldrb	r3, [r3]
 706 000a FB71     		strb	r3, [r7, #7]
 852:Generated_Source\PSoC5/USB.c **** 
 853:Generated_Source\PSoC5/USB.c ****     /* Clear bus activity. */
 854:Generated_Source\PSoC5/USB.c ****     USB_CR1_REG = (cr1Reg & (uint8) ~USB_CR1_BUS_ACTIVITY);
 707              		.loc 1 854 0
 708 000c 094A     		ldr	r2, .L26
 709 000e FB79     		ldrb	r3, [r7, #7]
 710 0010 23F00403 		bic	r3, r3, #4
 711 0014 DBB2     		uxtb	r3, r3
 712 0016 1370     		strb	r3, [r2]
 855:Generated_Source\PSoC5/USB.c **** 
 856:Generated_Source\PSoC5/USB.c ****     /* Get bus activity. */
 857:Generated_Source\PSoC5/USB.c ****     return ((0u != (cr1Reg & USB_CR1_BUS_ACTIVITY)) ? (1u) : (0u));
 713              		.loc 1 857 0
 714 0018 FB79     		ldrb	r3, [r7, #7]	@ zero_extendqisi2
 715 001a 03F00403 		and	r3, r3, #4
 716 001e 002B     		cmp	r3, #0
 717 0020 01D0     		beq	.L23
 718              		.loc 1 857 0 is_stmt 0 discriminator 1
 719 0022 0123     		movs	r3, #1
 720 0024 00E0     		b	.L24
 721              	.L23:
 722              		.loc 1 857 0 discriminator 2
 723 0026 0023     		movs	r3, #0
 724              	.L24:
 858:Generated_Source\PSoC5/USB.c **** }
 725              		.loc 1 858 0 is_stmt 1 discriminator 4
 726 0028 1846     		mov	r0, r3
 727 002a 0C37     		adds	r7, r7, #12
 728              		.cfi_def_cfa_offset 4
 729 002c BD46     		mov	sp, r7
 730              		.cfi_def_cfa_register 13
 731              		@ sp needed
 732 002e 5DF8047B 		ldr	r7, [sp], #4
 733              		.cfi_restore 7
 734              		.cfi_def_cfa_offset 0
 735 0032 7047     		bx	lr
 736              	.L27:
 737              		.align	2
 738              	.L26:
ARM GAS  C:\Users\214016~1\AppData\Local\Temp\ccpUOjiz.s 			page 29


 739 0034 09600040 		.word	1073766409
 740              		.cfi_endproc
 741              	.LFE5:
 742              		.size	USB_CheckActivity, .-USB_CheckActivity
 743              		.section	.text.USB_GetConfiguration,"ax",%progbits
 744              		.align	2
 745              		.global	USB_GetConfiguration
 746              		.thumb
 747              		.thumb_func
 748              		.type	USB_GetConfiguration, %function
 749              	USB_GetConfiguration:
 750              	.LFB6:
 859:Generated_Source\PSoC5/USB.c **** 
 860:Generated_Source\PSoC5/USB.c **** 
 861:Generated_Source\PSoC5/USB.c **** /*******************************************************************************
 862:Generated_Source\PSoC5/USB.c **** * Function Name: USB_GetConfiguration
 863:Generated_Source\PSoC5/USB.c **** ****************************************************************************//**
 864:Generated_Source\PSoC5/USB.c **** *
 865:Generated_Source\PSoC5/USB.c **** *  This function gets the current configuration of the USB device.
 866:Generated_Source\PSoC5/USB.c **** *
 867:Generated_Source\PSoC5/USB.c **** * \return
 868:Generated_Source\PSoC5/USB.c **** *  Returns the currently assigned configuration. Returns 0 if the device
 869:Generated_Source\PSoC5/USB.c **** *  is not configured
 870:Generated_Source\PSoC5/USB.c **** *
 871:Generated_Source\PSoC5/USB.c **** *******************************************************************************/
 872:Generated_Source\PSoC5/USB.c **** uint8 USB_GetConfiguration(void) 
 873:Generated_Source\PSoC5/USB.c **** {
 751              		.loc 1 873 0
 752              		.cfi_startproc
 753              		@ args = 0, pretend = 0, frame = 0
 754              		@ frame_needed = 1, uses_anonymous_args = 0
 755              		@ link register save eliminated.
 756 0000 80B4     		push	{r7}
 757              		.cfi_def_cfa_offset 4
 758              		.cfi_offset 7, -4
 759 0002 00AF     		add	r7, sp, #0
 760              		.cfi_def_cfa_register 7
 874:Generated_Source\PSoC5/USB.c ****     return (USB_configuration);
 761              		.loc 1 874 0
 762 0004 034B     		ldr	r3, .L30
 763 0006 1B78     		ldrb	r3, [r3]
 764 0008 DBB2     		uxtb	r3, r3
 875:Generated_Source\PSoC5/USB.c **** }
 765              		.loc 1 875 0
 766 000a 1846     		mov	r0, r3
 767 000c BD46     		mov	sp, r7
 768              		.cfi_def_cfa_register 13
 769              		@ sp needed
 770 000e 5DF8047B 		ldr	r7, [sp], #4
 771              		.cfi_restore 7
 772              		.cfi_def_cfa_offset 0
 773 0012 7047     		bx	lr
 774              	.L31:
 775              		.align	2
 776              	.L30:
 777 0014 00000000 		.word	USB_configuration
 778              		.cfi_endproc
ARM GAS  C:\Users\214016~1\AppData\Local\Temp\ccpUOjiz.s 			page 30


 779              	.LFE6:
 780              		.size	USB_GetConfiguration, .-USB_GetConfiguration
 781              		.section	.text.USB_IsConfigurationChanged,"ax",%progbits
 782              		.align	2
 783              		.global	USB_IsConfigurationChanged
 784              		.thumb
 785              		.thumb_func
 786              		.type	USB_IsConfigurationChanged, %function
 787              	USB_IsConfigurationChanged:
 788              	.LFB7:
 876:Generated_Source\PSoC5/USB.c **** 
 877:Generated_Source\PSoC5/USB.c **** 
 878:Generated_Source\PSoC5/USB.c **** /*******************************************************************************
 879:Generated_Source\PSoC5/USB.c **** * Function Name: USB_IsConfigurationChanged
 880:Generated_Source\PSoC5/USB.c **** ****************************************************************************//**
 881:Generated_Source\PSoC5/USB.c **** *
 882:Generated_Source\PSoC5/USB.c **** *  This function returns the clear-on-read configuration state.  It is useful
 883:Generated_Source\PSoC5/USB.c **** *  when the host sends double SET_CONFIGURATION request with the same 
 884:Generated_Source\PSoC5/USB.c **** *  configuration number or changes alternate settings of the interface. 
 885:Generated_Source\PSoC5/USB.c **** *  After configuration has been changed the OUT endpoints must be enabled and IN 
 886:Generated_Source\PSoC5/USB.c **** *  endpoint must be loaded with data to start communication with the host.
 887:Generated_Source\PSoC5/USB.c **** *
 888:Generated_Source\PSoC5/USB.c **** * \return
 889:Generated_Source\PSoC5/USB.c **** *  None-zero value when new configuration has been changed, otherwise zero is
 890:Generated_Source\PSoC5/USB.c **** *  returned.
 891:Generated_Source\PSoC5/USB.c **** *
 892:Generated_Source\PSoC5/USB.c **** * \globalvars
 893:Generated_Source\PSoC5/USB.c **** *
 894:Generated_Source\PSoC5/USB.c **** *  \ref USB_configurationChanged - This variable is set to 1 after
 895:Generated_Source\PSoC5/USB.c **** *   a SET_CONFIGURATION request and cleared in this function.
 896:Generated_Source\PSoC5/USB.c **** *
 897:Generated_Source\PSoC5/USB.c **** *******************************************************************************/
 898:Generated_Source\PSoC5/USB.c **** uint8 USB_IsConfigurationChanged(void) 
 899:Generated_Source\PSoC5/USB.c **** {
 789              		.loc 1 899 0
 790              		.cfi_startproc
 791              		@ args = 0, pretend = 0, frame = 8
 792              		@ frame_needed = 1, uses_anonymous_args = 0
 793              		@ link register save eliminated.
 794 0000 80B4     		push	{r7}
 795              		.cfi_def_cfa_offset 4
 796              		.cfi_offset 7, -4
 797 0002 83B0     		sub	sp, sp, #12
 798              		.cfi_def_cfa_offset 16
 799 0004 00AF     		add	r7, sp, #0
 800              		.cfi_def_cfa_register 7
 900:Generated_Source\PSoC5/USB.c ****     uint8 res = 0u;
 801              		.loc 1 900 0
 802 0006 0023     		movs	r3, #0
 803 0008 FB71     		strb	r3, [r7, #7]
 901:Generated_Source\PSoC5/USB.c **** 
 902:Generated_Source\PSoC5/USB.c ****     if (USB_configurationChanged != 0u)
 804              		.loc 1 902 0
 805 000a 094B     		ldr	r3, .L35
 806 000c 1B78     		ldrb	r3, [r3]
 807 000e DBB2     		uxtb	r3, r3
 808 0010 002B     		cmp	r3, #0
ARM GAS  C:\Users\214016~1\AppData\Local\Temp\ccpUOjiz.s 			page 31


 809 0012 05D0     		beq	.L33
 903:Generated_Source\PSoC5/USB.c ****     {
 904:Generated_Source\PSoC5/USB.c ****         res = USB_configurationChanged;
 810              		.loc 1 904 0
 811 0014 064B     		ldr	r3, .L35
 812 0016 1B78     		ldrb	r3, [r3]
 813 0018 FB71     		strb	r3, [r7, #7]
 905:Generated_Source\PSoC5/USB.c ****         USB_configurationChanged = 0u;
 814              		.loc 1 905 0
 815 001a 054B     		ldr	r3, .L35
 816 001c 0022     		movs	r2, #0
 817 001e 1A70     		strb	r2, [r3]
 818              	.L33:
 906:Generated_Source\PSoC5/USB.c ****     }
 907:Generated_Source\PSoC5/USB.c **** 
 908:Generated_Source\PSoC5/USB.c ****     return (res);
 819              		.loc 1 908 0
 820 0020 FB79     		ldrb	r3, [r7, #7]	@ zero_extendqisi2
 909:Generated_Source\PSoC5/USB.c **** }
 821              		.loc 1 909 0
 822 0022 1846     		mov	r0, r3
 823 0024 0C37     		adds	r7, r7, #12
 824              		.cfi_def_cfa_offset 4
 825 0026 BD46     		mov	sp, r7
 826              		.cfi_def_cfa_register 13
 827              		@ sp needed
 828 0028 5DF8047B 		ldr	r7, [sp], #4
 829              		.cfi_restore 7
 830              		.cfi_def_cfa_offset 0
 831 002c 7047     		bx	lr
 832              	.L36:
 833 002e 00BF     		.align	2
 834              	.L35:
 835 0030 00000000 		.word	USB_configurationChanged
 836              		.cfi_endproc
 837              	.LFE7:
 838              		.size	USB_IsConfigurationChanged, .-USB_IsConfigurationChanged
 839              		.section	.text.USB_GetInterfaceSetting,"ax",%progbits
 840              		.align	2
 841              		.global	USB_GetInterfaceSetting
 842              		.thumb
 843              		.thumb_func
 844              		.type	USB_GetInterfaceSetting, %function
 845              	USB_GetInterfaceSetting:
 846              	.LFB8:
 910:Generated_Source\PSoC5/USB.c **** 
 911:Generated_Source\PSoC5/USB.c **** 
 912:Generated_Source\PSoC5/USB.c **** /*******************************************************************************
 913:Generated_Source\PSoC5/USB.c **** * Function Name: USB_GetInterfaceSetting
 914:Generated_Source\PSoC5/USB.c **** ****************************************************************************//**
 915:Generated_Source\PSoC5/USB.c **** *
 916:Generated_Source\PSoC5/USB.c **** *  This function gets the current alternate setting for the specified interface.
 917:Generated_Source\PSoC5/USB.c **** *  It is useful to identify which alternate settings are active in the specified 
 918:Generated_Source\PSoC5/USB.c **** *  interface.
 919:Generated_Source\PSoC5/USB.c **** *
 920:Generated_Source\PSoC5/USB.c **** *  \param
 921:Generated_Source\PSoC5/USB.c **** *  interfaceNumber interface number
ARM GAS  C:\Users\214016~1\AppData\Local\Temp\ccpUOjiz.s 			page 32


 922:Generated_Source\PSoC5/USB.c **** *
 923:Generated_Source\PSoC5/USB.c **** * \return
 924:Generated_Source\PSoC5/USB.c **** *  Returns the current alternate setting for the specified interface.
 925:Generated_Source\PSoC5/USB.c **** *
 926:Generated_Source\PSoC5/USB.c **** *******************************************************************************/
 927:Generated_Source\PSoC5/USB.c **** uint8  USB_GetInterfaceSetting(uint8 interfaceNumber)
 928:Generated_Source\PSoC5/USB.c ****                                                     
 929:Generated_Source\PSoC5/USB.c **** {
 847              		.loc 1 929 0
 848              		.cfi_startproc
 849              		@ args = 0, pretend = 0, frame = 8
 850              		@ frame_needed = 1, uses_anonymous_args = 0
 851              		@ link register save eliminated.
 852 0000 80B4     		push	{r7}
 853              		.cfi_def_cfa_offset 4
 854              		.cfi_offset 7, -4
 855 0002 83B0     		sub	sp, sp, #12
 856              		.cfi_def_cfa_offset 16
 857 0004 00AF     		add	r7, sp, #0
 858              		.cfi_def_cfa_register 7
 859 0006 0346     		mov	r3, r0
 860 0008 FB71     		strb	r3, [r7, #7]
 930:Generated_Source\PSoC5/USB.c ****     return (USB_interfaceSetting[interfaceNumber]);
 861              		.loc 1 930 0
 862 000a FB79     		ldrb	r3, [r7, #7]	@ zero_extendqisi2
 863 000c 044A     		ldr	r2, .L39
 864 000e D35C     		ldrb	r3, [r2, r3]
 865 0010 DBB2     		uxtb	r3, r3
 931:Generated_Source\PSoC5/USB.c **** }
 866              		.loc 1 931 0
 867 0012 1846     		mov	r0, r3
 868 0014 0C37     		adds	r7, r7, #12
 869              		.cfi_def_cfa_offset 4
 870 0016 BD46     		mov	sp, r7
 871              		.cfi_def_cfa_register 13
 872              		@ sp needed
 873 0018 5DF8047B 		ldr	r7, [sp], #4
 874              		.cfi_restore 7
 875              		.cfi_def_cfa_offset 0
 876 001c 7047     		bx	lr
 877              	.L40:
 878 001e 00BF     		.align	2
 879              	.L39:
 880 0020 00000000 		.word	USB_interfaceSetting
 881              		.cfi_endproc
 882              	.LFE8:
 883              		.size	USB_GetInterfaceSetting, .-USB_GetInterfaceSetting
 884              		.section	.text.USB_GetEPState,"ax",%progbits
 885              		.align	2
 886              		.global	USB_GetEPState
 887              		.thumb
 888              		.thumb_func
 889              		.type	USB_GetEPState, %function
 890              	USB_GetEPState:
 891              	.LFB9:
 932:Generated_Source\PSoC5/USB.c **** 
 933:Generated_Source\PSoC5/USB.c **** 
ARM GAS  C:\Users\214016~1\AppData\Local\Temp\ccpUOjiz.s 			page 33


 934:Generated_Source\PSoC5/USB.c **** /*******************************************************************************
 935:Generated_Source\PSoC5/USB.c **** * Function Name: USB_GetEPState
 936:Generated_Source\PSoC5/USB.c **** ****************************************************************************//**
 937:Generated_Source\PSoC5/USB.c **** *
 938:Generated_Source\PSoC5/USB.c **** *  This function returns the state of the requested endpoint.
 939:Generated_Source\PSoC5/USB.c **** *
 940:Generated_Source\PSoC5/USB.c **** * \param epNumber Data endpoint number
 941:Generated_Source\PSoC5/USB.c **** *
 942:Generated_Source\PSoC5/USB.c **** * \return
 943:Generated_Source\PSoC5/USB.c **** *  Returns the current state of the specified USBFS endpoint. Symbolic names and
 944:Generated_Source\PSoC5/USB.c **** *  their associated values are given in the following table. Use these constants
 945:Generated_Source\PSoC5/USB.c **** *  whenever you write code to change the state of the endpoints, such as ISR
 946:Generated_Source\PSoC5/USB.c **** *  code, to handle data sent or received.
 947:Generated_Source\PSoC5/USB.c **** *
 948:Generated_Source\PSoC5/USB.c **** *  Return Value           | Description
 949:Generated_Source\PSoC5/USB.c **** *  -----------------------|-----------------------------------------------------
 950:Generated_Source\PSoC5/USB.c **** *  USBFS_NO_EVENT_PENDING |The endpoint is awaiting SIE action
 951:Generated_Source\PSoC5/USB.c **** *  USBFS_EVENT_PENDING    |The endpoint is awaiting CPU action
 952:Generated_Source\PSoC5/USB.c **** *  USBFS_NO_EVENT_ALLOWED |The endpoint is locked from access
 953:Generated_Source\PSoC5/USB.c **** *  USBFS_IN_BUFFER_FULL   |The IN endpoint is loaded and the mode is set to ACK IN
 954:Generated_Source\PSoC5/USB.c **** *  USBFS_IN_BUFFER_EMPTY  |An IN transaction occurred and more data can be loaded
 955:Generated_Source\PSoC5/USB.c **** *  USBFS_OUT_BUFFER_EMPTY |The OUT endpoint is set to ACK OUT and is waiting for data
 956:Generated_Source\PSoC5/USB.c **** *  USBFS_OUT_BUFFER_FULL  |An OUT transaction has occurred and data can be read
 957:Generated_Source\PSoC5/USB.c **** *
 958:Generated_Source\PSoC5/USB.c **** *******************************************************************************/
 959:Generated_Source\PSoC5/USB.c **** uint8 USB_GetEPState(uint8 epNumber) 
 960:Generated_Source\PSoC5/USB.c **** {
 892              		.loc 1 960 0
 893              		.cfi_startproc
 894              		@ args = 0, pretend = 0, frame = 8
 895              		@ frame_needed = 1, uses_anonymous_args = 0
 896              		@ link register save eliminated.
 897 0000 80B4     		push	{r7}
 898              		.cfi_def_cfa_offset 4
 899              		.cfi_offset 7, -4
 900 0002 83B0     		sub	sp, sp, #12
 901              		.cfi_def_cfa_offset 16
 902 0004 00AF     		add	r7, sp, #0
 903              		.cfi_def_cfa_register 7
 904 0006 0346     		mov	r3, r0
 905 0008 FB71     		strb	r3, [r7, #7]
 961:Generated_Source\PSoC5/USB.c ****     return (USB_EP[epNumber].apiEpState);
 906              		.loc 1 961 0
 907 000a FA79     		ldrb	r2, [r7, #7]	@ zero_extendqisi2
 908 000c 0649     		ldr	r1, .L43
 909 000e 1346     		mov	r3, r2
 910 0010 5B00     		lsls	r3, r3, #1
 911 0012 1344     		add	r3, r3, r2
 912 0014 9B00     		lsls	r3, r3, #2
 913 0016 0B44     		add	r3, r3, r1
 914 0018 5B78     		ldrb	r3, [r3, #1]
 915 001a DBB2     		uxtb	r3, r3
 962:Generated_Source\PSoC5/USB.c **** }
 916              		.loc 1 962 0
 917 001c 1846     		mov	r0, r3
 918 001e 0C37     		adds	r7, r7, #12
 919              		.cfi_def_cfa_offset 4
ARM GAS  C:\Users\214016~1\AppData\Local\Temp\ccpUOjiz.s 			page 34


 920 0020 BD46     		mov	sp, r7
 921              		.cfi_def_cfa_register 13
 922              		@ sp needed
 923 0022 5DF8047B 		ldr	r7, [sp], #4
 924              		.cfi_restore 7
 925              		.cfi_def_cfa_offset 0
 926 0026 7047     		bx	lr
 927              	.L44:
 928              		.align	2
 929              	.L43:
 930 0028 00000000 		.word	USB_EP
 931              		.cfi_endproc
 932              	.LFE9:
 933              		.size	USB_GetEPState, .-USB_GetEPState
 934              		.section	.text.USB_GetEPCount,"ax",%progbits
 935              		.align	2
 936              		.global	USB_GetEPCount
 937              		.thumb
 938              		.thumb_func
 939              		.type	USB_GetEPCount, %function
 940              	USB_GetEPCount:
 941              	.LFB10:
 963:Generated_Source\PSoC5/USB.c **** 
 964:Generated_Source\PSoC5/USB.c **** 
 965:Generated_Source\PSoC5/USB.c **** /*******************************************************************************
 966:Generated_Source\PSoC5/USB.c **** * Function Name: USB_GetEPCount
 967:Generated_Source\PSoC5/USB.c **** ****************************************************************************//**
 968:Generated_Source\PSoC5/USB.c **** *
 969:Generated_Source\PSoC5/USB.c **** *  This function supports Data Endpoints only(EP1-EP8).
 970:Generated_Source\PSoC5/USB.c **** *  Returns the transfer count for the requested endpoint.  The value from
 971:Generated_Source\PSoC5/USB.c **** *  the count registers includes 2 counts for the two byte checksum of the
 972:Generated_Source\PSoC5/USB.c **** *  packet.  This function subtracts the two counts.
 973:Generated_Source\PSoC5/USB.c **** *
 974:Generated_Source\PSoC5/USB.c **** *  \param epNumber Data Endpoint Number.
 975:Generated_Source\PSoC5/USB.c **** *                   Valid values are between 1 and 8.
 976:Generated_Source\PSoC5/USB.c **** *
 977:Generated_Source\PSoC5/USB.c **** * \return
 978:Generated_Source\PSoC5/USB.c **** *  Returns the current byte count from the specified endpoint or 0 for an
 979:Generated_Source\PSoC5/USB.c **** *  invalid endpoint.
 980:Generated_Source\PSoC5/USB.c **** *
 981:Generated_Source\PSoC5/USB.c **** *******************************************************************************/
 982:Generated_Source\PSoC5/USB.c **** uint16 USB_GetEPCount(uint8 epNumber) 
 983:Generated_Source\PSoC5/USB.c **** {
 942              		.loc 1 983 0
 943              		.cfi_startproc
 944              		@ args = 0, pretend = 0, frame = 16
 945              		@ frame_needed = 1, uses_anonymous_args = 0
 946              		@ link register save eliminated.
 947 0000 80B4     		push	{r7}
 948              		.cfi_def_cfa_offset 4
 949              		.cfi_offset 7, -4
 950 0002 85B0     		sub	sp, sp, #20
 951              		.cfi_def_cfa_offset 24
 952 0004 00AF     		add	r7, sp, #0
 953              		.cfi_def_cfa_register 7
 954 0006 0346     		mov	r3, r0
 955 0008 FB71     		strb	r3, [r7, #7]
ARM GAS  C:\Users\214016~1\AppData\Local\Temp\ccpUOjiz.s 			page 35


 984:Generated_Source\PSoC5/USB.c ****     uint16 cntr = 0u;
 956              		.loc 1 984 0
 957 000a 0023     		movs	r3, #0
 958 000c FB81     		strh	r3, [r7, #14]	@ movhi
 985:Generated_Source\PSoC5/USB.c **** 
 986:Generated_Source\PSoC5/USB.c ****     if ((epNumber > USB_EP0) && (epNumber < USB_MAX_EP))
 959              		.loc 1 986 0
 960 000e FB79     		ldrb	r3, [r7, #7]	@ zero_extendqisi2
 961 0010 002B     		cmp	r3, #0
 962 0012 1BD0     		beq	.L46
 963              		.loc 1 986 0 is_stmt 0 discriminator 1
 964 0014 FB79     		ldrb	r3, [r7, #7]	@ zero_extendqisi2
 965 0016 082B     		cmp	r3, #8
 966 0018 18D8     		bhi	.L46
 987:Generated_Source\PSoC5/USB.c ****     {
 988:Generated_Source\PSoC5/USB.c ****         /* Get 11-bits EP counter where epCnt0 - 3 bits MSB and epCnt1 - 8 bits LSB. */
 989:Generated_Source\PSoC5/USB.c ****         cntr  = ((uint16) USB_SIE_EP_BASE.sieEp[epNumber].epCnt0) & USB_EPX_CNT0_MASK;
 967              		.loc 1 989 0 is_stmt 1
 968 001a 104A     		ldr	r2, .L48
 969 001c FB79     		ldrb	r3, [r7, #7]	@ zero_extendqisi2
 970 001e 1B01     		lsls	r3, r3, #4
 971 0020 1344     		add	r3, r3, r2
 972 0022 1B78     		ldrb	r3, [r3]
 973 0024 DBB2     		uxtb	r3, r3
 974 0026 9BB2     		uxth	r3, r3
 975 0028 03F00F03 		and	r3, r3, #15
 976 002c FB81     		strh	r3, [r7, #14]	@ movhi
 990:Generated_Source\PSoC5/USB.c ****         cntr  = ((uint16) (cntr << 8u)) | ((uint16) USB_SIE_EP_BASE.sieEp[epNumber].epCnt1);
 977              		.loc 1 990 0
 978 002e FB89     		ldrh	r3, [r7, #14]	@ movhi
 979 0030 1B02     		lsls	r3, r3, #8
 980 0032 9AB2     		uxth	r2, r3
 981 0034 0949     		ldr	r1, .L48
 982 0036 FB79     		ldrb	r3, [r7, #7]	@ zero_extendqisi2
 983 0038 1B01     		lsls	r3, r3, #4
 984 003a 0B44     		add	r3, r3, r1
 985 003c 5B78     		ldrb	r3, [r3, #1]
 986 003e DBB2     		uxtb	r3, r3
 987 0040 9BB2     		uxth	r3, r3
 988 0042 1343     		orrs	r3, r3, r2
 989 0044 FB81     		strh	r3, [r7, #14]	@ movhi
 991:Generated_Source\PSoC5/USB.c ****         cntr -= USB_EPX_CNTX_CRC_COUNT;
 990              		.loc 1 991 0
 991 0046 FB89     		ldrh	r3, [r7, #14]	@ movhi
 992 0048 023B     		subs	r3, r3, #2
 993 004a FB81     		strh	r3, [r7, #14]	@ movhi
 994              	.L46:
 992:Generated_Source\PSoC5/USB.c ****     }
 993:Generated_Source\PSoC5/USB.c **** 
 994:Generated_Source\PSoC5/USB.c ****     return (cntr);
 995              		.loc 1 994 0
 996 004c FB89     		ldrh	r3, [r7, #14]
 995:Generated_Source\PSoC5/USB.c **** }
 997              		.loc 1 995 0
 998 004e 1846     		mov	r0, r3
 999 0050 1437     		adds	r7, r7, #20
 1000              		.cfi_def_cfa_offset 4
ARM GAS  C:\Users\214016~1\AppData\Local\Temp\ccpUOjiz.s 			page 36


 1001 0052 BD46     		mov	sp, r7
 1002              		.cfi_def_cfa_register 13
 1003              		@ sp needed
 1004 0054 5DF8047B 		ldr	r7, [sp], #4
 1005              		.cfi_restore 7
 1006              		.cfi_def_cfa_offset 0
 1007 0058 7047     		bx	lr
 1008              	.L49:
 1009 005a 00BF     		.align	2
 1010              	.L48:
 1011 005c FC5F0040 		.word	1073766396
 1012              		.cfi_endproc
 1013              	.LFE10:
 1014              		.size	USB_GetEPCount, .-USB_GetEPCount
 1015              		.section	.text.USB_LoadInEP,"ax",%progbits
 1016              		.align	2
 1017              		.global	USB_LoadInEP
 1018              		.thumb
 1019              		.thumb_func
 1020              		.type	USB_LoadInEP, %function
 1021              	USB_LoadInEP:
 1022              	.LFB11:
 996:Generated_Source\PSoC5/USB.c **** 
 997:Generated_Source\PSoC5/USB.c **** 
 998:Generated_Source\PSoC5/USB.c **** #if (USB_EP_MANAGEMENT_DMA)
 999:Generated_Source\PSoC5/USB.c **** #if (CY_PSOC4)
1000:Generated_Source\PSoC5/USB.c ****     /*******************************************************************************
1001:Generated_Source\PSoC5/USB.c ****     * Function Name: USB_InitEpDma
1002:Generated_Source\PSoC5/USB.c ****     ****************************************************************************//**
1003:Generated_Source\PSoC5/USB.c ****     *
1004:Generated_Source\PSoC5/USB.c ****     *  This function configures priority for all DMA channels utilized by the
1005:Generated_Source\PSoC5/USB.c ****     *  component. Also sets callbacks for DMA auto mode.
1006:Generated_Source\PSoC5/USB.c ****     *
1007:Generated_Source\PSoC5/USB.c ****     *******************************************************************************/
1008:Generated_Source\PSoC5/USB.c ****     static void USB_InitEpDma(void)
1009:Generated_Source\PSoC5/USB.c ****     {
1010:Generated_Source\PSoC5/USB.c ****     #if (USB_DMA1_ACTIVE)
1011:Generated_Source\PSoC5/USB.c ****         CYDMA_CH_CTL_BASE.ctl[USB_ep1_dma_CHANNEL] = USB_ep1_dma_CHANNEL_CFG;
1012:Generated_Source\PSoC5/USB.c ****     #endif /* (USB_DMA1_ACTIVE) */
1013:Generated_Source\PSoC5/USB.c **** 
1014:Generated_Source\PSoC5/USB.c ****     #if (USB_DMA2_ACTIVE)
1015:Generated_Source\PSoC5/USB.c ****         CYDMA_CH_CTL_BASE.ctl[USB_ep2_dma_CHANNEL] = USB_ep2_dma_CHANNEL_CFG;
1016:Generated_Source\PSoC5/USB.c ****     #endif /* (USB_DMA2_ACTIVE) */
1017:Generated_Source\PSoC5/USB.c **** 
1018:Generated_Source\PSoC5/USB.c ****     #if (USB_DMA3_ACTIVE)
1019:Generated_Source\PSoC5/USB.c ****         CYDMA_CH_CTL_BASE.ctl[USB_ep3_dma_CHANNEL] = USB_ep3_dma_CHANNEL_CFG;
1020:Generated_Source\PSoC5/USB.c ****     #endif /* (USB_DMA3_ACTIVE) */
1021:Generated_Source\PSoC5/USB.c **** 
1022:Generated_Source\PSoC5/USB.c ****     #if (USB_DMA4_ACTIVE)
1023:Generated_Source\PSoC5/USB.c ****         CYDMA_CH_CTL_BASE.ctl[USB_ep4_dma_CHANNEL] = USB_ep4_dma_CHANNEL_CFG;
1024:Generated_Source\PSoC5/USB.c ****     #endif /* (USB_DMA4_ACTIVE) */
1025:Generated_Source\PSoC5/USB.c **** 
1026:Generated_Source\PSoC5/USB.c ****     #if (USB_DMA5_ACTIVE)
1027:Generated_Source\PSoC5/USB.c ****         CYDMA_CH_CTL_BASE.ctl[USB_ep5_dma_CHANNEL] = USB_ep5_dma_CHANNEL_CFG;
1028:Generated_Source\PSoC5/USB.c ****     #endif /* (USB_DMA5_ACTIVE) */
1029:Generated_Source\PSoC5/USB.c **** 
1030:Generated_Source\PSoC5/USB.c ****     #if (USB_DMA6_ACTIVE)
ARM GAS  C:\Users\214016~1\AppData\Local\Temp\ccpUOjiz.s 			page 37


1031:Generated_Source\PSoC5/USB.c ****         CYDMA_CH_CTL_BASE.ctl[USB_ep6_dma_CHANNEL] = USB_ep6_dma_CHANNEL_CFG;
1032:Generated_Source\PSoC5/USB.c ****     #endif /* (USB_DMA6_ACTIVE) */
1033:Generated_Source\PSoC5/USB.c **** 
1034:Generated_Source\PSoC5/USB.c ****     #if (USB_DMA7_ACTIVE)
1035:Generated_Source\PSoC5/USB.c ****         CYDMA_CH_CTL_BASE.ctl[USB_ep7_dma_CHANNEL] = USB_ep7_dma_CHANNEL_CFG;
1036:Generated_Source\PSoC5/USB.c ****     #endif /* (USB_DMA7_ACTIVE) */
1037:Generated_Source\PSoC5/USB.c **** 
1038:Generated_Source\PSoC5/USB.c ****     #if (USB_DMA8_ACTIVE)
1039:Generated_Source\PSoC5/USB.c ****         CYDMA_CH_CTL_BASE.ctl[USB_ep8_dma_CHANNEL] = USB_ep8_dma_CHANNEL_CFG;
1040:Generated_Source\PSoC5/USB.c ****     #endif /* (USB_DMA8_ACTIVE) */
1041:Generated_Source\PSoC5/USB.c **** 
1042:Generated_Source\PSoC5/USB.c ****     #if (USB_EP_MANAGEMENT_DMA_AUTO)
1043:Generated_Source\PSoC5/USB.c ****         /* Initialize DMA channel callbacks. */
1044:Generated_Source\PSoC5/USB.c ****         #if (USB_DMA1_ACTIVE)
1045:Generated_Source\PSoC5/USB.c ****             (void) USB_ep1_dma_SetInterruptCallback(&USB_EP1_DMA_DONE_ISR);
1046:Generated_Source\PSoC5/USB.c ****         #endif /* (USB_DMA1_ACTIVE) */
1047:Generated_Source\PSoC5/USB.c **** 
1048:Generated_Source\PSoC5/USB.c ****         #if (USB_DMA2_ACTIVE)
1049:Generated_Source\PSoC5/USB.c ****             (void) USB_ep2_dma_SetInterruptCallback(&USB_EP2_DMA_DONE_ISR);
1050:Generated_Source\PSoC5/USB.c ****         #endif /* (USB_DMA2_ACTIVE) */
1051:Generated_Source\PSoC5/USB.c **** 
1052:Generated_Source\PSoC5/USB.c ****         #if (USB_DMA3_ACTIVE)
1053:Generated_Source\PSoC5/USB.c ****             (void) USB_ep3_dma_SetInterruptCallback(&USB_EP3_DMA_DONE_ISR);
1054:Generated_Source\PSoC5/USB.c ****         #endif /* (USB_DMA3_ACTIVE) */
1055:Generated_Source\PSoC5/USB.c **** 
1056:Generated_Source\PSoC5/USB.c ****         #if (USB_DMA4_ACTIVE)
1057:Generated_Source\PSoC5/USB.c ****             (void) USB_ep4_dma_SetInterruptCallback(&USB_EP4_DMA_DONE_ISR);
1058:Generated_Source\PSoC5/USB.c ****         #endif /* (USB_DMA4_ACTIVE) */
1059:Generated_Source\PSoC5/USB.c **** 
1060:Generated_Source\PSoC5/USB.c ****         #if (USB_DMA5_ACTIVE)
1061:Generated_Source\PSoC5/USB.c ****             (void) USB_ep5_dma_SetInterruptCallback(&USB_EP5_DMA_DONE_ISR);
1062:Generated_Source\PSoC5/USB.c ****         #endif /* (USB_DMA5_ACTIVE) */
1063:Generated_Source\PSoC5/USB.c **** 
1064:Generated_Source\PSoC5/USB.c ****         #if (USB_DMA6_ACTIVE)
1065:Generated_Source\PSoC5/USB.c ****             (void) USB_ep6_dma_SetInterruptCallback(&USB_EP6_DMA_DONE_ISR);
1066:Generated_Source\PSoC5/USB.c ****         #endif /* (USB_DMA6_ACTIVE) */
1067:Generated_Source\PSoC5/USB.c **** 
1068:Generated_Source\PSoC5/USB.c ****         #if (USB_DMA7_ACTIVE)
1069:Generated_Source\PSoC5/USB.c ****             (void) USB_ep7_dma_SetInterruptCallback(&USB_EP7_DMA_DONE_ISR);
1070:Generated_Source\PSoC5/USB.c ****         #endif /* (USB_DMA7_ACTIVE) */
1071:Generated_Source\PSoC5/USB.c **** 
1072:Generated_Source\PSoC5/USB.c ****         #if (USB_DMA8_ACTIVE)
1073:Generated_Source\PSoC5/USB.c ****             (void) USB_ep8_dma_SetInterruptCallback(&USB_EP8_DMA_DONE_ISR);
1074:Generated_Source\PSoC5/USB.c ****         #endif /* (USB_DMA8_ACTIVE) */
1075:Generated_Source\PSoC5/USB.c ****     #endif /* (USB_EP_MANAGEMENT_DMA_AUTO) */
1076:Generated_Source\PSoC5/USB.c ****     }
1077:Generated_Source\PSoC5/USB.c **** #else
1078:Generated_Source\PSoC5/USB.c **** 
1079:Generated_Source\PSoC5/USB.c **** 
1080:Generated_Source\PSoC5/USB.c ****     /***************************************************************************
1081:Generated_Source\PSoC5/USB.c ****     * Function Name: USB_InitEP_DMA
1082:Generated_Source\PSoC5/USB.c ****     ************************************************************************//**
1083:Generated_Source\PSoC5/USB.c ****     *
1084:Generated_Source\PSoC5/USB.c ****     *  This function allocates and initializes a DMA channel to be used by the
1085:Generated_Source\PSoC5/USB.c ****     *  USB_LoadInEP() or USB_ReadOutEP() APIs for data
1086:Generated_Source\PSoC5/USB.c ****     *  transfer. It is available when the Endpoint Memory Management parameter
1087:Generated_Source\PSoC5/USB.c ****     *  is set to DMA.
ARM GAS  C:\Users\214016~1\AppData\Local\Temp\ccpUOjiz.s 			page 38


1088:Generated_Source\PSoC5/USB.c ****     *
1089:Generated_Source\PSoC5/USB.c ****     *  This function is automatically called from the USBFS_LoadInEP() and USBFS_ReadOutEP() APIs.
1090:Generated_Source\PSoC5/USB.c ****     *
1091:Generated_Source\PSoC5/USB.c ****     *  \param epNumber Contains the data endpoint number.
1092:Generated_Source\PSoC5/USB.c ****     *            Valid values are between 1 and 8.
1093:Generated_Source\PSoC5/USB.c ****     *  \param *pData Pointer to a data array that is related to the EP transfers.
1094:Generated_Source\PSoC5/USB.c ****     *
1095:Generated_Source\PSoC5/USB.c ****     * \reentrant No.
1096:Generated_Source\PSoC5/USB.c ****     *
1097:Generated_Source\PSoC5/USB.c ****     ***************************************************************************/
1098:Generated_Source\PSoC5/USB.c ****     void USB_InitEP_DMA(uint8 epNumber, const uint8 *pData)
1099:Generated_Source\PSoC5/USB.c ****                                                                     
1100:Generated_Source\PSoC5/USB.c ****     {
1101:Generated_Source\PSoC5/USB.c ****         uint16 src;
1102:Generated_Source\PSoC5/USB.c ****         uint16 dst;
1103:Generated_Source\PSoC5/USB.c **** 
1104:Generated_Source\PSoC5/USB.c ****     #if (CY_PSOC3)
1105:Generated_Source\PSoC5/USB.c ****         src = HI16(CYDEV_SRAM_BASE);
1106:Generated_Source\PSoC5/USB.c ****         dst = HI16(CYDEV_PERIPH_BASE);
1107:Generated_Source\PSoC5/USB.c ****         pData = pData;
1108:Generated_Source\PSoC5/USB.c ****     #else
1109:Generated_Source\PSoC5/USB.c ****         if ((USB_EP[epNumber].addr & USB_DIR_IN) != 0u)
1110:Generated_Source\PSoC5/USB.c ****         {
1111:Generated_Source\PSoC5/USB.c ****             /* IN endpoint: source is memory buffer. */
1112:Generated_Source\PSoC5/USB.c ****             src = HI16(pData);
1113:Generated_Source\PSoC5/USB.c ****             dst = HI16(CYDEV_PERIPH_BASE);
1114:Generated_Source\PSoC5/USB.c ****         }
1115:Generated_Source\PSoC5/USB.c ****         else
1116:Generated_Source\PSoC5/USB.c ****         {
1117:Generated_Source\PSoC5/USB.c ****             /* OUT endpoint: source is USB IP memory buffer. */
1118:Generated_Source\PSoC5/USB.c ****             src = HI16(CYDEV_PERIPH_BASE);
1119:Generated_Source\PSoC5/USB.c ****             dst = HI16(pData);
1120:Generated_Source\PSoC5/USB.c ****         }
1121:Generated_Source\PSoC5/USB.c ****     #endif  /* (CY_PSOC3) */
1122:Generated_Source\PSoC5/USB.c **** 
1123:Generated_Source\PSoC5/USB.c ****         switch(epNumber)
1124:Generated_Source\PSoC5/USB.c ****         {
1125:Generated_Source\PSoC5/USB.c ****     #if (USB_DMA1_ACTIVE)
1126:Generated_Source\PSoC5/USB.c ****         case USB_EP1:
1127:Generated_Source\PSoC5/USB.c ****             USB_DmaChan[epNumber] = USB_ep1_DmaInitialize(USB_DMA_BYTES_PER_BURST,
1128:Generated_Source\PSoC5/USB.c ****                                                                                     USB_DMA_REQUEST
1129:Generated_Source\PSoC5/USB.c ****             break;
1130:Generated_Source\PSoC5/USB.c ****     #endif /* (USB_DMA1_ACTIVE) */
1131:Generated_Source\PSoC5/USB.c **** 
1132:Generated_Source\PSoC5/USB.c ****     #if (USB_DMA2_ACTIVE)
1133:Generated_Source\PSoC5/USB.c ****         case USB_EP2:
1134:Generated_Source\PSoC5/USB.c ****             USB_DmaChan[epNumber] = USB_ep2_DmaInitialize(USB_DMA_BYTES_PER_BURST,
1135:Generated_Source\PSoC5/USB.c ****                                                                                     USB_DMA_REQUEST
1136:Generated_Source\PSoC5/USB.c ****             break;
1137:Generated_Source\PSoC5/USB.c ****     #endif /* (USB_DMA2_ACTIVE) */
1138:Generated_Source\PSoC5/USB.c **** 
1139:Generated_Source\PSoC5/USB.c ****     #if (USB_DMA3_ACTIVE)
1140:Generated_Source\PSoC5/USB.c ****             case USB_EP3:
1141:Generated_Source\PSoC5/USB.c ****                 USB_DmaChan[epNumber] = USB_ep3_DmaInitialize(USB_DMA_BYTES_PER_BURST,
1142:Generated_Source\PSoC5/USB.c ****                                                                                         USB_DMA_REQ
1143:Generated_Source\PSoC5/USB.c ****             break;
1144:Generated_Source\PSoC5/USB.c ****     #endif /* (USB_DMA3_ACTIVE) */
ARM GAS  C:\Users\214016~1\AppData\Local\Temp\ccpUOjiz.s 			page 39


1145:Generated_Source\PSoC5/USB.c **** 
1146:Generated_Source\PSoC5/USB.c ****     #if (USB_DMA4_ACTIVE)
1147:Generated_Source\PSoC5/USB.c ****             case USB_EP4:
1148:Generated_Source\PSoC5/USB.c ****                 USB_DmaChan[epNumber] = USB_ep4_DmaInitialize(USB_DMA_BYTES_PER_BURST,
1149:Generated_Source\PSoC5/USB.c ****                                                                                         USB_DMA_REQ
1150:Generated_Source\PSoC5/USB.c ****             break;
1151:Generated_Source\PSoC5/USB.c ****     #endif /* (USB_DMA4_ACTIVE) */
1152:Generated_Source\PSoC5/USB.c **** 
1153:Generated_Source\PSoC5/USB.c ****     #if (USB_DMA5_ACTIVE)
1154:Generated_Source\PSoC5/USB.c ****             case USB_EP5:
1155:Generated_Source\PSoC5/USB.c ****                 USB_DmaChan[epNumber] = USB_ep5_DmaInitialize(USB_DMA_BYTES_PER_BURST,
1156:Generated_Source\PSoC5/USB.c ****                                                                                         USB_DMA_REQ
1157:Generated_Source\PSoC5/USB.c ****             break;
1158:Generated_Source\PSoC5/USB.c ****     #endif /* (USB_DMA5_ACTIVE) */
1159:Generated_Source\PSoC5/USB.c **** 
1160:Generated_Source\PSoC5/USB.c ****     #if (USB_DMA6_ACTIVE)
1161:Generated_Source\PSoC5/USB.c ****         case USB_EP6:
1162:Generated_Source\PSoC5/USB.c ****             USB_DmaChan[epNumber] = USB_ep6_DmaInitialize(USB_DMA_BYTES_PER_BURST,
1163:Generated_Source\PSoC5/USB.c ****                                                                                     USB_DMA_REQUEST
1164:Generated_Source\PSoC5/USB.c ****             break;
1165:Generated_Source\PSoC5/USB.c ****     #endif /* (USB_DMA6_ACTIVE) */
1166:Generated_Source\PSoC5/USB.c **** 
1167:Generated_Source\PSoC5/USB.c ****     #if (USB_DMA7_ACTIVE)
1168:Generated_Source\PSoC5/USB.c ****         case USB_EP7:
1169:Generated_Source\PSoC5/USB.c ****                 USB_DmaChan[epNumber] = USB_ep7_DmaInitialize(USB_DMA_BYTES_PER_BURST,
1170:Generated_Source\PSoC5/USB.c ****                                                                                         USB_DMA_REQ
1171:Generated_Source\PSoC5/USB.c ****             break;
1172:Generated_Source\PSoC5/USB.c ****     #endif /* (USB_DMA7_ACTIVE) */
1173:Generated_Source\PSoC5/USB.c **** 
1174:Generated_Source\PSoC5/USB.c ****     #if (USB_DMA8_ACTIVE)
1175:Generated_Source\PSoC5/USB.c ****         case USB_EP8:
1176:Generated_Source\PSoC5/USB.c ****                 USB_DmaChan[epNumber] = USB_ep8_DmaInitialize(USB_DMA_BYTES_PER_BURST,
1177:Generated_Source\PSoC5/USB.c ****                                                                                         USB_DMA_REQ
1178:Generated_Source\PSoC5/USB.c ****             break;
1179:Generated_Source\PSoC5/USB.c ****     #endif /* (USB_DMA8_ACTIVE) */
1180:Generated_Source\PSoC5/USB.c **** 
1181:Generated_Source\PSoC5/USB.c ****         default:
1182:Generated_Source\PSoC5/USB.c ****             /* Do nothing for endpoints other than 1-8. */
1183:Generated_Source\PSoC5/USB.c ****             break;
1184:Generated_Source\PSoC5/USB.c ****         }
1185:Generated_Source\PSoC5/USB.c **** 
1186:Generated_Source\PSoC5/USB.c ****         if ((epNumber > USB_EP0) && (epNumber < USB_MAX_EP))
1187:Generated_Source\PSoC5/USB.c ****         {
1188:Generated_Source\PSoC5/USB.c ****             USB_DmaTd[epNumber] = CyDmaTdAllocate();
1189:Generated_Source\PSoC5/USB.c **** 
1190:Generated_Source\PSoC5/USB.c ****         #if (USB_EP_MANAGEMENT_DMA_AUTO && (USB_EP_DMA_AUTO_OPT == 0u))
1191:Generated_Source\PSoC5/USB.c ****             USB_DmaNextTd[epNumber] = CyDmaTdAllocate();
1192:Generated_Source\PSoC5/USB.c ****         #endif /* (USB_EP_MANAGEMENT_DMA_AUTO && (USB_EP_DMA_AUTO_OPT == 0u)) */
1193:Generated_Source\PSoC5/USB.c ****         }
1194:Generated_Source\PSoC5/USB.c ****     }
1195:Generated_Source\PSoC5/USB.c **** #endif /* (CY_PSOC4) */
1196:Generated_Source\PSoC5/USB.c **** 
1197:Generated_Source\PSoC5/USB.c ****     /***************************************************************************
1198:Generated_Source\PSoC5/USB.c ****     * Function Name: USB_Stop_DMA
1199:Generated_Source\PSoC5/USB.c ****     ************************************************************************//**
1200:Generated_Source\PSoC5/USB.c ****     *  
1201:Generated_Source\PSoC5/USB.c ****     *  This function stops DMA channel associated with endpoint. It is available 
ARM GAS  C:\Users\214016~1\AppData\Local\Temp\ccpUOjiz.s 			page 40


1202:Generated_Source\PSoC5/USB.c ****     *  when the Endpoint Buffer Management parameter is set to DMA. Call this 
1203:Generated_Source\PSoC5/USB.c ****     *  function when endpoint direction is changed from IN to OUT or vice versa 
1204:Generated_Source\PSoC5/USB.c ****     *  to trigger DMA re-configuration when USB_LoadInEP() or 
1205:Generated_Source\PSoC5/USB.c ****     *  USB_ReadOutEP() functions are called the first time. 
1206:Generated_Source\PSoC5/USB.c ****     *  
1207:Generated_Source\PSoC5/USB.c ****     *  \param epNumber: The data endpoint number for which associated DMA 
1208:Generated_Source\PSoC5/USB.c ****     *  channel is stopped. The range of valid values is between 1 and 8. To stop 
1209:Generated_Source\PSoC5/USB.c ****     *  all DMAs associated with endpoints call this function with 
1210:Generated_Source\PSoC5/USB.c ****     *  USB_MAX_EP argument.
1211:Generated_Source\PSoC5/USB.c ****     *
1212:Generated_Source\PSoC5/USB.c ****     * \reentrant
1213:Generated_Source\PSoC5/USB.c ****     *  No.
1214:Generated_Source\PSoC5/USB.c ****     *
1215:Generated_Source\PSoC5/USB.c ****     ***************************************************************************/
1216:Generated_Source\PSoC5/USB.c ****     void USB_Stop_DMA(uint8 epNumber) 
1217:Generated_Source\PSoC5/USB.c ****     {
1218:Generated_Source\PSoC5/USB.c ****         uint8 i;
1219:Generated_Source\PSoC5/USB.c **** 
1220:Generated_Source\PSoC5/USB.c ****         i = (epNumber < USB_MAX_EP) ? epNumber : USB_EP1;
1221:Generated_Source\PSoC5/USB.c **** 
1222:Generated_Source\PSoC5/USB.c ****         do
1223:Generated_Source\PSoC5/USB.c ****         {
1224:Generated_Source\PSoC5/USB.c ****         #if (CY_PSOC4)
1225:Generated_Source\PSoC5/USB.c ****             if (0u != USB_DmaChan[i])
1226:Generated_Source\PSoC5/USB.c ****             {
1227:Generated_Source\PSoC5/USB.c ****                 USB_CyDmaChDisable(USB_DmaChan[i]);
1228:Generated_Source\PSoC5/USB.c ****             }
1229:Generated_Source\PSoC5/USB.c ****         #else
1230:Generated_Source\PSoC5/USB.c ****             if(USB_DmaTd[i] != DMA_INVALID_TD)
1231:Generated_Source\PSoC5/USB.c ****             {
1232:Generated_Source\PSoC5/USB.c ****                 (void) CyDmaChDisable(USB_DmaChan[i]);
1233:Generated_Source\PSoC5/USB.c ****                 CyDmaTdFree(USB_DmaTd[i]);
1234:Generated_Source\PSoC5/USB.c ****                 USB_DmaTd[i] = DMA_INVALID_TD;
1235:Generated_Source\PSoC5/USB.c ****             }
1236:Generated_Source\PSoC5/USB.c **** 
1237:Generated_Source\PSoC5/USB.c ****             #if (USB_EP_MANAGEMENT_DMA_AUTO && (USB_EP_DMA_AUTO_OPT == 0u))
1238:Generated_Source\PSoC5/USB.c ****                 if(USB_DmaNextTd[i] != DMA_INVALID_TD)
1239:Generated_Source\PSoC5/USB.c ****                 {
1240:Generated_Source\PSoC5/USB.c ****                     CyDmaTdFree(USB_DmaNextTd[i]);
1241:Generated_Source\PSoC5/USB.c ****                     USB_DmaNextTd[i] = DMA_INVALID_TD;
1242:Generated_Source\PSoC5/USB.c ****                 }
1243:Generated_Source\PSoC5/USB.c ****             #endif /* (USB_EP_MANAGEMENT_DMA_AUTO && (USB_EP_DMA_AUTO_OPT == 0u)) */
1244:Generated_Source\PSoC5/USB.c **** 
1245:Generated_Source\PSoC5/USB.c ****         #endif /* (CY_PSOC4) */
1246:Generated_Source\PSoC5/USB.c ****             i++;
1247:Generated_Source\PSoC5/USB.c ****         }
1248:Generated_Source\PSoC5/USB.c ****         while ((i < USB_MAX_EP) && (epNumber == USB_MAX_EP));
1249:Generated_Source\PSoC5/USB.c ****     }
1250:Generated_Source\PSoC5/USB.c **** #endif /* (USB_EP_MANAGEMENT_DMA) */
1251:Generated_Source\PSoC5/USB.c **** 
1252:Generated_Source\PSoC5/USB.c **** 
1253:Generated_Source\PSoC5/USB.c **** #if (CY_PSOC3 || CY_PSOC5)
1254:Generated_Source\PSoC5/USB.c **** #if (USB_EP_MANAGEMENT_DMA_AUTO && (USB_EP_DMA_AUTO_OPT == 0u))
1255:Generated_Source\PSoC5/USB.c ****     /***************************************************************************
1256:Generated_Source\PSoC5/USB.c ****     * Function Name: USB_LoadNextInEP
1257:Generated_Source\PSoC5/USB.c ****     ************************************************************************//**
1258:Generated_Source\PSoC5/USB.c ****     *
ARM GAS  C:\Users\214016~1\AppData\Local\Temp\ccpUOjiz.s 			page 41


1259:Generated_Source\PSoC5/USB.c ****     * Summary:
1260:Generated_Source\PSoC5/USB.c ****     *  This internal function is used for IN endpoint DMA reconfiguration in
1261:Generated_Source\PSoC5/USB.c ****     *  Auto DMA mode.
1262:Generated_Source\PSoC5/USB.c ****     *
1263:Generated_Source\PSoC5/USB.c ****     * Parameters:
1264:Generated_Source\PSoC5/USB.c ****     *  epNumber: Contains the data endpoint number.
1265:Generated_Source\PSoC5/USB.c ****     *  mode:   0 - Configure DMA to send the the rest of data.
1266:Generated_Source\PSoC5/USB.c ****     *          1 - Configure DMA to repeat 2 last bytes of the first burst.
1267:Generated_Source\PSoC5/USB.c ****     *
1268:Generated_Source\PSoC5/USB.c ****     ***************************************************************************/
1269:Generated_Source\PSoC5/USB.c ****     void USB_LoadNextInEP(uint8 epNumber, uint8 mode) 
1270:Generated_Source\PSoC5/USB.c ****     {
1271:Generated_Source\PSoC5/USB.c ****         reg16 *convert;
1272:Generated_Source\PSoC5/USB.c **** 
1273:Generated_Source\PSoC5/USB.c ****         if (mode == 0u)
1274:Generated_Source\PSoC5/USB.c ****         {
1275:Generated_Source\PSoC5/USB.c ****             /* Configure DMA to send rest of data. */
1276:Generated_Source\PSoC5/USB.c ****             /* CyDmaTdSetConfiguration API is optimized to change transfer length only and configur
1277:Generated_Source\PSoC5/USB.c ****             convert = (reg16 *) &CY_DMA_TDMEM_STRUCT_PTR[USB_DmaTd[epNumber]].TD0[0u];
1278:Generated_Source\PSoC5/USB.c ****             /* Set transfer length. */
1279:Generated_Source\PSoC5/USB.c ****             CY_SET_REG16(convert, USB_inLength[epNumber] - USB_DMA_BYTES_PER_BURST);
1280:Generated_Source\PSoC5/USB.c ****             /* CyDmaTdSetAddress API is optimized to change source address only. */
1281:Generated_Source\PSoC5/USB.c ****             convert = (reg16 *) &CY_DMA_TDMEM_STRUCT_PTR[USB_DmaTd[epNumber]].TD1[0u];
1282:Generated_Source\PSoC5/USB.c ****             CY_SET_REG16(convert, LO16((uint32)USB_inDataPointer[epNumber] +
1283:Generated_Source\PSoC5/USB.c ****                                             USB_DMA_BYTES_PER_BURST));
1284:Generated_Source\PSoC5/USB.c ****             USB_inBufFull[epNumber] = 1u;
1285:Generated_Source\PSoC5/USB.c ****         }
1286:Generated_Source\PSoC5/USB.c ****         else
1287:Generated_Source\PSoC5/USB.c ****         {
1288:Generated_Source\PSoC5/USB.c ****             /* Configure DMA to repeat 2 last bytes of the first burst. */
1289:Generated_Source\PSoC5/USB.c ****             /* CyDmaTdSetConfiguration API is optimized to change transfer length only and configur
1290:Generated_Source\PSoC5/USB.c ****             convert = (reg16 *) &CY_DMA_TDMEM_STRUCT_PTR[USB_DmaTd[epNumber]].TD0[0u];
1291:Generated_Source\PSoC5/USB.c ****             /* Set transfer length. */
1292:Generated_Source\PSoC5/USB.c ****             CY_SET_REG16(convert, USB_DMA_BYTES_REPEAT);
1293:Generated_Source\PSoC5/USB.c ****             /* CyDmaTdSetAddress API is optimized to change source address only. */
1294:Generated_Source\PSoC5/USB.c ****             convert = (reg16 *) &CY_DMA_TDMEM_STRUCT_PTR[USB_DmaTd[epNumber]].TD1[0u];
1295:Generated_Source\PSoC5/USB.c ****             CY_SET_REG16(convert,  LO16((uint32)USB_inDataPointer[epNumber] +
1296:Generated_Source\PSoC5/USB.c ****                                    (USB_DMA_BYTES_PER_BURST - USB_DMA_BYTES_REPEAT)));
1297:Generated_Source\PSoC5/USB.c ****         }
1298:Generated_Source\PSoC5/USB.c **** 
1299:Generated_Source\PSoC5/USB.c ****         /* CyDmaChSetInitialTd API is optimized to initialize TD. */
1300:Generated_Source\PSoC5/USB.c ****         CY_DMA_CH_STRUCT_PTR[USB_DmaChan[epNumber]].basic_status[1u] = USB_DmaTd[epNumber];
1301:Generated_Source\PSoC5/USB.c ****     }
1302:Generated_Source\PSoC5/USB.c **** #endif /* (USB_EP_MANAGEMENT_DMA_AUTO && (USB_EP_DMA_AUTO_OPT == 0u)) */
1303:Generated_Source\PSoC5/USB.c **** #endif /* (CY_PSOC3 || CY_PSOC5) */
1304:Generated_Source\PSoC5/USB.c **** 
1305:Generated_Source\PSoC5/USB.c **** 
1306:Generated_Source\PSoC5/USB.c **** /*******************************************************************************
1307:Generated_Source\PSoC5/USB.c **** * Function Name: USB_LoadInEP
1308:Generated_Source\PSoC5/USB.c **** ****************************************************************************//**
1309:Generated_Source\PSoC5/USB.c **** *
1310:Generated_Source\PSoC5/USB.c **** *  This function performs different functionality depending on the Component’s
1311:Generated_Source\PSoC5/USB.c **** *  configured Endpoint Buffer Management. This parameter is defined in
1312:Generated_Source\PSoC5/USB.c **** *  the Descriptor Root in Component Configure window.
1313:Generated_Source\PSoC5/USB.c **** *
1314:Generated_Source\PSoC5/USB.c **** *  *Manual (Static/Dynamic Allocation):*
1315:Generated_Source\PSoC5/USB.c **** *  This function loads and enables the specified USB data endpoint for an IN
ARM GAS  C:\Users\214016~1\AppData\Local\Temp\ccpUOjiz.s 			page 42


1316:Generated_Source\PSoC5/USB.c **** *  data transfer.
1317:Generated_Source\PSoC5/USB.c **** *
1318:Generated_Source\PSoC5/USB.c **** *  *DMA with Manual Buffer Management:*
1319:Generated_Source\PSoC5/USB.c **** *  Configures DMA for a data transfer from system RAM to endpoint buffer.
1320:Generated_Source\PSoC5/USB.c **** *  Generates request for a transfer.
1321:Generated_Source\PSoC5/USB.c **** *
1322:Generated_Source\PSoC5/USB.c **** *  *DMA with Automatic Buffer Management:*
1323:Generated_Source\PSoC5/USB.c **** *  Configures DMA. This is required only once, so it is done only when parameter
1324:Generated_Source\PSoC5/USB.c **** *  pData is not NULL. When the pData pointer is NULL, the function skips this
1325:Generated_Source\PSoC5/USB.c **** *  task. Sets Data ready status: This generates the first DMA transfer and
1326:Generated_Source\PSoC5/USB.c **** *  prepares data in endpoint buffer.
1327:Generated_Source\PSoC5/USB.c **** *
1328:Generated_Source\PSoC5/USB.c **** *  \param epNumber Contains the data endpoint number.
1329:Generated_Source\PSoC5/USB.c **** *            Valid values are between 1 and 8.
1330:Generated_Source\PSoC5/USB.c **** *  \param *pData A pointer to a data array from which the data for the endpoint space
1331:Generated_Source\PSoC5/USB.c **** *          is loaded.
1332:Generated_Source\PSoC5/USB.c **** *  \param length The number of bytes to transfer from the array and then send as
1333:Generated_Source\PSoC5/USB.c **** *          a result of an IN request. Valid values are between 0 and 512
1334:Generated_Source\PSoC5/USB.c **** *          (1023 for DMA with Automatic Buffer Management mode). The value 512
1335:Generated_Source\PSoC5/USB.c **** *          is applicable if only one endpoint is used.
1336:Generated_Source\PSoC5/USB.c **** *
1337:Generated_Source\PSoC5/USB.c **** *
1338:Generated_Source\PSoC5/USB.c **** * \reentrant
1339:Generated_Source\PSoC5/USB.c **** *  No.
1340:Generated_Source\PSoC5/USB.c **** *
1341:Generated_Source\PSoC5/USB.c **** *******************************************************************************/
1342:Generated_Source\PSoC5/USB.c **** void USB_LoadInEP(uint8 epNumber, const uint8 pData[], uint16 length)
1343:Generated_Source\PSoC5/USB.c ****                                                                         
1344:Generated_Source\PSoC5/USB.c **** {
 1023              		.loc 1 1344 0
 1024              		.cfi_startproc
 1025              		@ args = 0, pretend = 0, frame = 16
 1026              		@ frame_needed = 1, uses_anonymous_args = 0
 1027              		@ link register save eliminated.
 1028 0000 B0B4     		push	{r4, r5, r7}
 1029              		.cfi_def_cfa_offset 12
 1030              		.cfi_offset 4, -12
 1031              		.cfi_offset 5, -8
 1032              		.cfi_offset 7, -4
 1033 0002 85B0     		sub	sp, sp, #20
 1034              		.cfi_def_cfa_offset 32
 1035 0004 00AF     		add	r7, sp, #0
 1036              		.cfi_def_cfa_register 7
 1037 0006 0346     		mov	r3, r0
 1038 0008 3960     		str	r1, [r7]
 1039 000a FB71     		strb	r3, [r7, #7]
 1040 000c 1346     		mov	r3, r2	@ movhi
 1041 000e BB80     		strh	r3, [r7, #4]	@ movhi
1345:Generated_Source\PSoC5/USB.c ****     if ((epNumber > USB_EP0) && (epNumber < USB_MAX_EP))
 1042              		.loc 1 1345 0
 1043 0010 FB79     		ldrb	r3, [r7, #7]	@ zero_extendqisi2
 1044 0012 002B     		cmp	r3, #0
 1045 0014 66D0     		beq	.L50
 1046              		.loc 1 1345 0 is_stmt 0 discriminator 1
 1047 0016 FB79     		ldrb	r3, [r7, #7]	@ zero_extendqisi2
 1048 0018 082B     		cmp	r3, #8
 1049 001a 63D8     		bhi	.L50
ARM GAS  C:\Users\214016~1\AppData\Local\Temp\ccpUOjiz.s 			page 43


1346:Generated_Source\PSoC5/USB.c ****     {
1347:Generated_Source\PSoC5/USB.c ****     #if (!USB_EP_MANAGEMENT_DMA_AUTO)
1348:Generated_Source\PSoC5/USB.c ****         /* Limit length to available buffer USB IP buffer size.*/
1349:Generated_Source\PSoC5/USB.c ****         if (length > (USB_EPX_DATA_BUF_MAX - USB_EP[epNumber].buffOffset))
 1050              		.loc 1 1349 0 is_stmt 1
 1051 001c B988     		ldrh	r1, [r7, #4]
 1052 001e FA79     		ldrb	r2, [r7, #7]	@ zero_extendqisi2
 1053 0020 3248     		ldr	r0, .L56
 1054 0022 1346     		mov	r3, r2
 1055 0024 5B00     		lsls	r3, r3, #1
 1056 0026 1344     		add	r3, r3, r2
 1057 0028 9B00     		lsls	r3, r3, #2
 1058 002a 0344     		add	r3, r3, r0
 1059 002c DB88     		ldrh	r3, [r3, #6]	@ movhi
 1060 002e 9BB2     		uxth	r3, r3
 1061 0030 C3F50073 		rsb	r3, r3, #512
 1062 0034 9942     		cmp	r1, r3
 1063 0036 0BD9     		bls	.L52
1350:Generated_Source\PSoC5/USB.c ****         {
1351:Generated_Source\PSoC5/USB.c ****             length = USB_EPX_DATA_BUF_MAX - USB_EP[epNumber].buffOffset;
 1064              		.loc 1 1351 0
 1065 0038 FA79     		ldrb	r2, [r7, #7]	@ zero_extendqisi2
 1066 003a 2C49     		ldr	r1, .L56
 1067 003c 1346     		mov	r3, r2
 1068 003e 5B00     		lsls	r3, r3, #1
 1069 0040 1344     		add	r3, r3, r2
 1070 0042 9B00     		lsls	r3, r3, #2
 1071 0044 0B44     		add	r3, r3, r1
 1072 0046 DB88     		ldrh	r3, [r3, #6]	@ movhi
 1073 0048 9BB2     		uxth	r3, r3
 1074 004a C3F50073 		rsb	r3, r3, #512
 1075 004e BB80     		strh	r3, [r7, #4]	@ movhi
 1076              	.L52:
1352:Generated_Source\PSoC5/USB.c ****         }
1353:Generated_Source\PSoC5/USB.c ****     #endif /* (!USB_EP_MANAGEMENT_DMA_AUTO) */
1354:Generated_Source\PSoC5/USB.c **** 
1355:Generated_Source\PSoC5/USB.c ****         /* Set count and data toggle. */
1356:Generated_Source\PSoC5/USB.c ****         USB_SIE_EP_BASE.sieEp[epNumber].epCnt0 = (uint8) HI8(length) | USB_EP[epNumber].epToggle;
 1077              		.loc 1 1356 0
 1078 0050 274C     		ldr	r4, .L56+4
 1079 0052 F979     		ldrb	r1, [r7, #7]	@ zero_extendqisi2
 1080 0054 BB88     		ldrh	r3, [r7, #4]
 1081 0056 1B0A     		lsrs	r3, r3, #8
 1082 0058 9BB2     		uxth	r3, r3
 1083 005a D8B2     		uxtb	r0, r3
 1084 005c FA79     		ldrb	r2, [r7, #7]	@ zero_extendqisi2
 1085 005e 234D     		ldr	r5, .L56
 1086 0060 1346     		mov	r3, r2
 1087 0062 5B00     		lsls	r3, r3, #1
 1088 0064 1344     		add	r3, r3, r2
 1089 0066 9B00     		lsls	r3, r3, #2
 1090 0068 2B44     		add	r3, r3, r5
 1091 006a DB78     		ldrb	r3, [r3, #3]
 1092 006c DBB2     		uxtb	r3, r3
 1093 006e 0343     		orrs	r3, r3, r0
 1094 0070 DAB2     		uxtb	r2, r3
 1095 0072 0B01     		lsls	r3, r1, #4
ARM GAS  C:\Users\214016~1\AppData\Local\Temp\ccpUOjiz.s 			page 44


 1096 0074 2344     		add	r3, r3, r4
 1097 0076 1A70     		strb	r2, [r3]
1357:Generated_Source\PSoC5/USB.c ****         USB_SIE_EP_BASE.sieEp[epNumber].epCnt1 = (uint8) LO8(length);
 1098              		.loc 1 1357 0
 1099 0078 1D4A     		ldr	r2, .L56+4
 1100 007a FB79     		ldrb	r3, [r7, #7]	@ zero_extendqisi2
 1101 007c B988     		ldrh	r1, [r7, #4]	@ movhi
 1102 007e C9B2     		uxtb	r1, r1
 1103 0080 1B01     		lsls	r3, r3, #4
 1104 0082 1344     		add	r3, r3, r2
 1105 0084 0A46     		mov	r2, r1
 1106 0086 5A70     		strb	r2, [r3, #1]
1358:Generated_Source\PSoC5/USB.c **** 
1359:Generated_Source\PSoC5/USB.c ****     #if (USB_EP_MANAGEMENT_MANUAL)
1360:Generated_Source\PSoC5/USB.c ****         if (NULL != pData)
 1107              		.loc 1 1360 0
 1108 0088 3B68     		ldr	r3, [r7]
 1109 008a 002B     		cmp	r3, #0
 1110 008c 13D0     		beq	.L53
 1111              	.LBB2:
1361:Generated_Source\PSoC5/USB.c ****         {
1362:Generated_Source\PSoC5/USB.c **** 			/* Copy data using arbiter data register. */
1363:Generated_Source\PSoC5/USB.c ****             uint16 i;
1364:Generated_Source\PSoC5/USB.c ****             for (i = 0u; i < length; ++i)
 1112              		.loc 1 1364 0
 1113 008e 0023     		movs	r3, #0
 1114 0090 FB81     		strh	r3, [r7, #14]	@ movhi
 1115 0092 0CE0     		b	.L54
 1116              	.L55:
1365:Generated_Source\PSoC5/USB.c ****             {
1366:Generated_Source\PSoC5/USB.c ****                 USB_ARB_EP_BASE.arbEp[epNumber].rwDr = pData[i];
 1117              		.loc 1 1366 0 discriminator 3
 1118 0094 1748     		ldr	r0, .L56+8
 1119 0096 FB79     		ldrb	r3, [r7, #7]	@ zero_extendqisi2
 1120 0098 FA89     		ldrh	r2, [r7, #14]
 1121 009a 3968     		ldr	r1, [r7]
 1122 009c 0A44     		add	r2, r2, r1
 1123 009e 1278     		ldrb	r2, [r2]	@ zero_extendqisi2
 1124 00a0 1B01     		lsls	r3, r3, #4
 1125 00a2 0344     		add	r3, r3, r0
 1126 00a4 0833     		adds	r3, r3, #8
 1127 00a6 1A70     		strb	r2, [r3]
1364:Generated_Source\PSoC5/USB.c ****             {
 1128              		.loc 1 1364 0 discriminator 3
 1129 00a8 FB89     		ldrh	r3, [r7, #14]	@ movhi
 1130 00aa 0133     		adds	r3, r3, #1
 1131 00ac FB81     		strh	r3, [r7, #14]	@ movhi
 1132              	.L54:
1364:Generated_Source\PSoC5/USB.c ****             {
 1133              		.loc 1 1364 0 is_stmt 0 discriminator 1
 1134 00ae FA89     		ldrh	r2, [r7, #14]
 1135 00b0 BB88     		ldrh	r3, [r7, #4]
 1136 00b2 9A42     		cmp	r2, r3
 1137 00b4 EED3     		bcc	.L55
 1138              	.L53:
 1139              	.LBE2:
1367:Generated_Source\PSoC5/USB.c ****             }
ARM GAS  C:\Users\214016~1\AppData\Local\Temp\ccpUOjiz.s 			page 45


1368:Generated_Source\PSoC5/USB.c ****         }
1369:Generated_Source\PSoC5/USB.c **** 
1370:Generated_Source\PSoC5/USB.c ****         /* IN endpoint buffer is full - read to be read. */
1371:Generated_Source\PSoC5/USB.c ****         USB_EP[epNumber].apiEpState = USB_NO_EVENT_PENDING;
 1140              		.loc 1 1371 0 is_stmt 1
 1141 00b6 FA79     		ldrb	r2, [r7, #7]	@ zero_extendqisi2
 1142 00b8 0C49     		ldr	r1, .L56
 1143 00ba 1346     		mov	r3, r2
 1144 00bc 5B00     		lsls	r3, r3, #1
 1145 00be 1344     		add	r3, r3, r2
 1146 00c0 9B00     		lsls	r3, r3, #2
 1147 00c2 0B44     		add	r3, r3, r1
 1148 00c4 0022     		movs	r2, #0
 1149 00c6 5A70     		strb	r2, [r3, #1]
1372:Generated_Source\PSoC5/USB.c **** 
1373:Generated_Source\PSoC5/USB.c ****         /* Arm IN endpoint. */
1374:Generated_Source\PSoC5/USB.c ****         USB_SIE_EP_BASE.sieEp[epNumber].epCr0 = USB_EP[epNumber].epMode;
 1150              		.loc 1 1374 0
 1151 00c8 0948     		ldr	r0, .L56+4
 1152 00ca F979     		ldrb	r1, [r7, #7]	@ zero_extendqisi2
 1153 00cc FA79     		ldrb	r2, [r7, #7]	@ zero_extendqisi2
 1154 00ce 074C     		ldr	r4, .L56
 1155 00d0 1346     		mov	r3, r2
 1156 00d2 5B00     		lsls	r3, r3, #1
 1157 00d4 1344     		add	r3, r3, r2
 1158 00d6 9B00     		lsls	r3, r3, #2
 1159 00d8 2344     		add	r3, r3, r4
 1160 00da 5B79     		ldrb	r3, [r3, #5]
 1161 00dc DAB2     		uxtb	r2, r3
 1162 00de 0B01     		lsls	r3, r1, #4
 1163 00e0 0344     		add	r3, r3, r0
 1164 00e2 9A70     		strb	r2, [r3, #2]
 1165              	.L50:
1375:Generated_Source\PSoC5/USB.c **** 
1376:Generated_Source\PSoC5/USB.c ****     #else
1377:Generated_Source\PSoC5/USB.c **** 
1378:Generated_Source\PSoC5/USB.c ****         #if (CY_PSOC3 || CY_PSOC5LP)
1379:Generated_Source\PSoC5/USB.c ****             /* Initialize DMA if it was not initialized. */
1380:Generated_Source\PSoC5/USB.c ****             if (DMA_INVALID_TD == USB_DmaTd[epNumber])
1381:Generated_Source\PSoC5/USB.c ****             {
1382:Generated_Source\PSoC5/USB.c ****                 USB_InitEP_DMA(epNumber, pData);
1383:Generated_Source\PSoC5/USB.c ****             }
1384:Generated_Source\PSoC5/USB.c ****         #endif /* (CY_PSOC3 || CY_PSOC5LP) */
1385:Generated_Source\PSoC5/USB.c **** 
1386:Generated_Source\PSoC5/USB.c ****         #if (USB_EP_MANAGEMENT_DMA_MANUAL)
1387:Generated_Source\PSoC5/USB.c ****             /* IN endpoint buffer will be fully loaded by DMA shortly. */
1388:Generated_Source\PSoC5/USB.c ****             USB_EP[epNumber].apiEpState = USB_NO_EVENT_PENDING;
1389:Generated_Source\PSoC5/USB.c **** 
1390:Generated_Source\PSoC5/USB.c ****             if ((pData != NULL) && (length > 0u))
1391:Generated_Source\PSoC5/USB.c ****             {
1392:Generated_Source\PSoC5/USB.c ****             #if (CY_PSOC4)
1393:Generated_Source\PSoC5/USB.c ****                 uint32 channelNum = (uint32) USB_DmaChan[epNumber];
1394:Generated_Source\PSoC5/USB.c **** 
1395:Generated_Source\PSoC5/USB.c ****                 /* Disable DMA channel: start configuration. */
1396:Generated_Source\PSoC5/USB.c ****                 USB_CyDmaChDisable(channelNum);
1397:Generated_Source\PSoC5/USB.c **** 
1398:Generated_Source\PSoC5/USB.c ****                 /* Configure source and destination. */
ARM GAS  C:\Users\214016~1\AppData\Local\Temp\ccpUOjiz.s 			page 46


1399:Generated_Source\PSoC5/USB.c ****                 USB_CyDmaSetSrcAddress(channelNum, USB_DMA_DESCR0, (void*) pData);
1400:Generated_Source\PSoC5/USB.c ****                 USB_CyDmaSetDstAddress(channelNum, USB_DMA_DESCR0, (void*) &USB_ARB_EP_BASE.arbEp[e
1401:Generated_Source\PSoC5/USB.c **** 
1402:Generated_Source\PSoC5/USB.c ****                 /* Configure DMA descriptor. */
1403:Generated_Source\PSoC5/USB.c ****                 --length;
1404:Generated_Source\PSoC5/USB.c ****                 USB_CyDmaSetConfiguration(channelNum, USB_DMA_DESCR0, USB_DMA_COMMON_CFG | length |
1405:Generated_Source\PSoC5/USB.c ****                                                         CYDMA_BYTE | CYDMA_ELEMENT_WORD | CYDMA_INC
1406:Generated_Source\PSoC5/USB.c **** 
1407:Generated_Source\PSoC5/USB.c ****                 /* Validate descriptor to execute on following DMA request. */
1408:Generated_Source\PSoC5/USB.c ****                 USB_CyDmaValidateDescriptor(channelNum, USB_DMA_DESCR0);
1409:Generated_Source\PSoC5/USB.c **** 
1410:Generated_Source\PSoC5/USB.c ****                 /* Enable DMA channel: configuration complete. */
1411:Generated_Source\PSoC5/USB.c ****                 USB_CyDmaChEnable(channelNum);
1412:Generated_Source\PSoC5/USB.c ****             #else
1413:Generated_Source\PSoC5/USB.c ****                 /* Configure DMA to transfer data. */
1414:Generated_Source\PSoC5/USB.c ****                 (void) CyDmaChDisable(USB_DmaChan[epNumber]);
1415:Generated_Source\PSoC5/USB.c ****                 (void) CyDmaTdSetConfiguration(USB_DmaTd[epNumber], length, CY_DMA_DISABLE_TD, TD_T
1416:Generated_Source\PSoC5/USB.c ****                 (void) CyDmaTdSetAddress(USB_DmaTd[epNumber], LO16((uint32) pData), LO16((uint32) &
1417:Generated_Source\PSoC5/USB.c **** 
1418:Generated_Source\PSoC5/USB.c ****                 /* Enable DMA channel. */
1419:Generated_Source\PSoC5/USB.c ****                 (void) CyDmaChSetInitialTd(USB_DmaChan[epNumber], USB_DmaTd[epNumber]);
1420:Generated_Source\PSoC5/USB.c ****                 (void) CyDmaChEnable(USB_DmaChan[epNumber], 1u);
1421:Generated_Source\PSoC5/USB.c ****             #endif /* (CY_PSOC4) */
1422:Generated_Source\PSoC5/USB.c **** 
1423:Generated_Source\PSoC5/USB.c ****                 /* Generate DMA request. */
1424:Generated_Source\PSoC5/USB.c ****                 USB_ARB_EP_BASE.arbEp[epNumber].epCfg |=  (uint8)  USB_ARB_EPX_CFG_DMA_REQ;
1425:Generated_Source\PSoC5/USB.c ****                 USB_ARB_EP_BASE.arbEp[epNumber].epCfg &=  (uint8) ~USB_ARB_EPX_CFG_DMA_REQ;
1426:Generated_Source\PSoC5/USB.c **** 
1427:Generated_Source\PSoC5/USB.c ****                 /* IN endpoint will be armed in ARB_ISR(source: IN_BUF_FULL) after first DMA transf
1428:Generated_Source\PSoC5/USB.c ****             }
1429:Generated_Source\PSoC5/USB.c ****             else
1430:Generated_Source\PSoC5/USB.c ****             {
1431:Generated_Source\PSoC5/USB.c ****                 /* When zero-length packet: arm IN endpoint directly. */
1432:Generated_Source\PSoC5/USB.c ****                 USB_SIE_EP_BASE.sieEp[epNumber].epCr0 = USB_EP[epNumber].epMode;
1433:Generated_Source\PSoC5/USB.c ****             }
1434:Generated_Source\PSoC5/USB.c ****         #endif /* (USB_EP_MANAGEMENT_DMA_MANUAL) */
1435:Generated_Source\PSoC5/USB.c **** 
1436:Generated_Source\PSoC5/USB.c ****         #if (USB_EP_MANAGEMENT_DMA_AUTO)
1437:Generated_Source\PSoC5/USB.c ****             if (pData != NULL)
1438:Generated_Source\PSoC5/USB.c ****             {
1439:Generated_Source\PSoC5/USB.c ****             #if (CY_PSOC4)
1440:Generated_Source\PSoC5/USB.c ****                 uint32 channelNum = (uint32) USB_DmaChan[epNumber];
1441:Generated_Source\PSoC5/USB.c **** 
1442:Generated_Source\PSoC5/USB.c ****                 /* Store address of buffer. */
1443:Generated_Source\PSoC5/USB.c ****                 USB_DmaEpBufferAddrBackup[epNumber] = (uint32) pData;
1444:Generated_Source\PSoC5/USB.c **** 
1445:Generated_Source\PSoC5/USB.c ****                 /* Disable DMA channel: start configuration. */
1446:Generated_Source\PSoC5/USB.c ****                 USB_CyDmaChDisable(channelNum);
1447:Generated_Source\PSoC5/USB.c **** 
1448:Generated_Source\PSoC5/USB.c ****                 /* Set destination address. */
1449:Generated_Source\PSoC5/USB.c ****                 USB_CyDmaSetDstAddress(channelNum, USB_DMA_DESCR0, (void*) &USB_ARB_EP_BASE.arbEp[e
1450:Generated_Source\PSoC5/USB.c ****                 USB_CyDmaSetDstAddress(channelNum, USB_DMA_DESCR1, (void*) &USB_ARB_EP_BASE.arbEp[e
1451:Generated_Source\PSoC5/USB.c **** 
1452:Generated_Source\PSoC5/USB.c ****                 /* Configure DMA descriptor. */
1453:Generated_Source\PSoC5/USB.c ****                 USB_CyDmaSetConfiguration(channelNum, USB_DMA_DESCR0, USB_DMA_COMMON_CFG  |
1454:Generated_Source\PSoC5/USB.c ****                                                         CYDMA_BYTE | CYDMA_ELEMENT_WORD | CYDMA_INC
1455:Generated_Source\PSoC5/USB.c **** 
ARM GAS  C:\Users\214016~1\AppData\Local\Temp\ccpUOjiz.s 			page 47


1456:Generated_Source\PSoC5/USB.c ****                 /* Configure DMA descriptor. */
1457:Generated_Source\PSoC5/USB.c ****                 USB_CyDmaSetConfiguration(channelNum, USB_DMA_DESCR1, USB_DMA_COMMON_CFG  |
1458:Generated_Source\PSoC5/USB.c ****                                                         CYDMA_BYTE | CYDMA_ELEMENT_WORD | CYDMA_INC
1459:Generated_Source\PSoC5/USB.c **** 
1460:Generated_Source\PSoC5/USB.c ****                 /* Enable interrupt from DMA channel. */
1461:Generated_Source\PSoC5/USB.c ****                 USB_CyDmaSetInterruptMask(channelNum);
1462:Generated_Source\PSoC5/USB.c **** 
1463:Generated_Source\PSoC5/USB.c **** 
1464:Generated_Source\PSoC5/USB.c ****                 /* Enable DMA channel: configuration complete. */
1465:Generated_Source\PSoC5/USB.c ****                 USB_CyDmaChEnable(channelNum);
1466:Generated_Source\PSoC5/USB.c **** 
1467:Generated_Source\PSoC5/USB.c ****             #else
1468:Generated_Source\PSoC5/USB.c ****                 (void) CyDmaChDisable(USB_DmaChan[epNumber]);
1469:Generated_Source\PSoC5/USB.c **** 
1470:Generated_Source\PSoC5/USB.c ****                 #if (USB_EP_DMA_AUTO_OPT == 0u)
1471:Generated_Source\PSoC5/USB.c ****                     USB_inLength[epNumber] = length;
1472:Generated_Source\PSoC5/USB.c ****                     USB_inDataPointer[epNumber] = pData;
1473:Generated_Source\PSoC5/USB.c **** 
1474:Generated_Source\PSoC5/USB.c ****                     /* Configure DMA to send data only for first burst */
1475:Generated_Source\PSoC5/USB.c ****                     (void) CyDmaTdSetConfiguration(USB_DmaTd[epNumber],
1476:Generated_Source\PSoC5/USB.c ****                         (length > USB_DMA_BYTES_PER_BURST) ? USB_DMA_BYTES_PER_BURST : length,
1477:Generated_Source\PSoC5/USB.c ****                         USB_DmaNextTd[epNumber], TD_TERMIN_EN | TD_INC_SRC_ADR);
1478:Generated_Source\PSoC5/USB.c ****                     (void) CyDmaTdSetAddress(USB_DmaTd[epNumber], LO16((uint32) pData),
1479:Generated_Source\PSoC5/USB.c ****                                                                                LO16((uint32) &USB_A
1480:Generated_Source\PSoC5/USB.c **** 
1481:Generated_Source\PSoC5/USB.c ****                     /* The second TD will be executed only when the first one fails.
1482:Generated_Source\PSoC5/USB.c ****                     *  The intention of this TD is to generate NRQ interrupt
1483:Generated_Source\PSoC5/USB.c ****                     *  and repeat 2 last bytes of the first burst.
1484:Generated_Source\PSoC5/USB.c ****                     */
1485:Generated_Source\PSoC5/USB.c ****                     (void) CyDmaTdSetConfiguration(USB_DmaNextTd[epNumber], 1u,
1486:Generated_Source\PSoC5/USB.c ****                                                    USB_DmaNextTd[epNumber],
1487:Generated_Source\PSoC5/USB.c ****                                                    USB_epX_TD_TERMOUT_EN[epNumber]);
1488:Generated_Source\PSoC5/USB.c **** 
1489:Generated_Source\PSoC5/USB.c ****                     /* Configure DmaNextTd to clear Data Ready status. */
1490:Generated_Source\PSoC5/USB.c ****                     (void) CyDmaTdSetAddress(USB_DmaNextTd[epNumber], LO16((uint32) &clearInDataRdy
1491:Generated_Source\PSoC5/USB.c ****                                                                                    LO16((uint32) &U
1492:Generated_Source\PSoC5/USB.c ****                 #else
1493:Generated_Source\PSoC5/USB.c ****                     /* Configure DMA to send all data. */
1494:Generated_Source\PSoC5/USB.c ****                     (void) CyDmaTdSetConfiguration(USB_DmaTd[epNumber], length,
1495:Generated_Source\PSoC5/USB.c ****                                                    USB_DmaTd[epNumber], TD_TERMIN_EN | TD_INC_SRC_A
1496:Generated_Source\PSoC5/USB.c ****                     (void) CyDmaTdSetAddress(USB_DmaTd[epNumber], LO16((uint32) pData),
1497:Generated_Source\PSoC5/USB.c ****                                                                                LO16((uint32) &USB_A
1498:Generated_Source\PSoC5/USB.c ****                 #endif /* (USB_EP_DMA_AUTO_OPT == 0u) */
1499:Generated_Source\PSoC5/USB.c **** 
1500:Generated_Source\PSoC5/USB.c ****                 /* Clear any potential pending DMA requests before starting DMA channel to transfer
1501:Generated_Source\PSoC5/USB.c ****                 (void) CyDmaClearPendingDrq(USB_DmaChan[epNumber]);
1502:Generated_Source\PSoC5/USB.c ****                 /* Enable DMA. */
1503:Generated_Source\PSoC5/USB.c ****                 (void) CyDmaChSetInitialTd(USB_DmaChan[epNumber], USB_DmaTd[epNumber]);
1504:Generated_Source\PSoC5/USB.c ****                 (void) CyDmaChEnable(USB_DmaChan[epNumber], 1u);
1505:Generated_Source\PSoC5/USB.c ****             #endif /* (CY_PSOC4) */
1506:Generated_Source\PSoC5/USB.c ****             }
1507:Generated_Source\PSoC5/USB.c ****             else
1508:Generated_Source\PSoC5/USB.c ****             {
1509:Generated_Source\PSoC5/USB.c ****                 /* IN endpoint buffer (32 bytes) will shortly be preloaded by DMA. */
1510:Generated_Source\PSoC5/USB.c ****                 USB_EP[epNumber].apiEpState = USB_NO_EVENT_PENDING;
1511:Generated_Source\PSoC5/USB.c **** 
1512:Generated_Source\PSoC5/USB.c ****                 if (length > 0u)
ARM GAS  C:\Users\214016~1\AppData\Local\Temp\ccpUOjiz.s 			page 48


1513:Generated_Source\PSoC5/USB.c ****                 {
1514:Generated_Source\PSoC5/USB.c ****                 #if (CY_PSOC4)
1515:Generated_Source\PSoC5/USB.c ****                     uint32 lengthDescr0, lengthDescr1;
1516:Generated_Source\PSoC5/USB.c ****                     uint32 channelNum = (uint32) USB_DmaChan[epNumber];
1517:Generated_Source\PSoC5/USB.c **** 
1518:Generated_Source\PSoC5/USB.c ****                     /* Get number of full bursts. */
1519:Generated_Source\PSoC5/USB.c ****                     USB_DmaEpBurstCnt[epNumber] = (uint8) (length / USB_DMA_BYTES_PER_BURST);
1520:Generated_Source\PSoC5/USB.c **** 
1521:Generated_Source\PSoC5/USB.c ****                     /* Get number of elements in the last burst. */
1522:Generated_Source\PSoC5/USB.c ****                     USB_DmaEpLastBurstEl[epNumber] = (uint8) (length % USB_DMA_BYTES_PER_BURST);
1523:Generated_Source\PSoC5/USB.c **** 
1524:Generated_Source\PSoC5/USB.c ****                     /* Get total number of bursts. */
1525:Generated_Source\PSoC5/USB.c ****                     USB_DmaEpBurstCnt[epNumber] += (0u != USB_DmaEpLastBurstEl[epNumber]) ? 1u : 0u
1526:Generated_Source\PSoC5/USB.c **** 
1527:Generated_Source\PSoC5/USB.c ****                     /* Adjust number of data elements transferred in last burst. */
1528:Generated_Source\PSoC5/USB.c ****                     USB_DmaEpLastBurstEl[epNumber] = (0u != USB_DmaEpLastBurstEl[epNumber]) ?
1529:Generated_Source\PSoC5/USB.c ****                                                                           (USB_DmaEpLastBurstEl[epN
1530:Generated_Source\PSoC5/USB.c ****                                                                           (USB_DMA_BYTES_PER_BURST 
1531:Generated_Source\PSoC5/USB.c **** 
1532:Generated_Source\PSoC5/USB.c ****                     /* Get number of data elements to transfer for descriptor 0 and 1. */
1533:Generated_Source\PSoC5/USB.c ****                     lengthDescr0 = (1u == USB_DmaEpBurstCnt[epNumber]) ? USB_DmaEpLastBurstEl[epNum
1534:Generated_Source\PSoC5/USB.c ****                     lengthDescr1 = (2u == USB_DmaEpBurstCnt[epNumber]) ? USB_DmaEpLastBurstEl[epNum
1535:Generated_Source\PSoC5/USB.c **** 
1536:Generated_Source\PSoC5/USB.c **** 
1537:Generated_Source\PSoC5/USB.c ****                     /* Mark which descriptor is last one to execute. */
1538:Generated_Source\PSoC5/USB.c ****                     USB_DmaEpLastBurstEl[epNumber] |= (0u != (USB_DmaEpBurstCnt[epNumber] & 0x1u)) 
1539:Generated_Source\PSoC5/USB.c ****                                                                             USB_DMA_DESCR0_MASK : U
1540:Generated_Source\PSoC5/USB.c **** 
1541:Generated_Source\PSoC5/USB.c ****                     /* Restore DMA settings for current transfer. */
1542:Generated_Source\PSoC5/USB.c ****                     USB_CyDmaChDisable(channelNum);
1543:Generated_Source\PSoC5/USB.c **** 
1544:Generated_Source\PSoC5/USB.c ****                     /* Restore destination address for input endpoint. */
1545:Generated_Source\PSoC5/USB.c ****                     USB_CyDmaSetSrcAddress(channelNum, USB_DMA_DESCR0, (void*) ((uint32) USB_DmaEpB
1546:Generated_Source\PSoC5/USB.c ****                     USB_CyDmaSetSrcAddress(channelNum, USB_DMA_DESCR1, (void*) ((uint32) USB_DmaEpB
1547:Generated_Source\PSoC5/USB.c ****                                                                                                    
1548:Generated_Source\PSoC5/USB.c **** 
1549:Generated_Source\PSoC5/USB.c ****                     /* Set number of elements to transfer. */
1550:Generated_Source\PSoC5/USB.c ****                     USB_CyDmaSetNumDataElements(channelNum, USB_DMA_DESCR0, lengthDescr0);
1551:Generated_Source\PSoC5/USB.c ****                     USB_CyDmaSetNumDataElements(channelNum, USB_DMA_DESCR1, lengthDescr1);
1552:Generated_Source\PSoC5/USB.c **** 
1553:Generated_Source\PSoC5/USB.c ****                     /* Validate descriptor 0 and command to start with it. */
1554:Generated_Source\PSoC5/USB.c ****                     USB_CyDmaValidateDescriptor(channelNum, USB_DMA_DESCR0);
1555:Generated_Source\PSoC5/USB.c ****                     USB_CyDmaSetDescriptor0Next(channelNum);
1556:Generated_Source\PSoC5/USB.c **** 
1557:Generated_Source\PSoC5/USB.c ****                     /* Validate descriptor 1. */
1558:Generated_Source\PSoC5/USB.c ****                     if (USB_DmaEpBurstCnt[epNumber] > 1u)
1559:Generated_Source\PSoC5/USB.c ****                     {
1560:Generated_Source\PSoC5/USB.c ****                         USB_CyDmaValidateDescriptor(channelNum, USB_DMA_DESCR1); 
1561:Generated_Source\PSoC5/USB.c ****                     }                   
1562:Generated_Source\PSoC5/USB.c **** 
1563:Generated_Source\PSoC5/USB.c ****                     /* Adjust burst counter taking to account: 2 valid descriptors and interrupt tr
1564:Generated_Source\PSoC5/USB.c ****                     USB_DmaEpBurstCnt[epNumber] = USB_DMA_GET_BURST_CNT(USB_DmaEpBurstCnt[epNumber]
1565:Generated_Source\PSoC5/USB.c **** 
1566:Generated_Source\PSoC5/USB.c ****                     /* Enable DMA channel: configuration complete. */
1567:Generated_Source\PSoC5/USB.c ****                     USB_CyDmaChEnable(channelNum);
1568:Generated_Source\PSoC5/USB.c **** 
1569:Generated_Source\PSoC5/USB.c ****                 #elif (USB_EP_DMA_AUTO_OPT == 0u)
ARM GAS  C:\Users\214016~1\AppData\Local\Temp\ccpUOjiz.s 			page 49


1570:Generated_Source\PSoC5/USB.c ****                     USB_inLength[epNumber]  = length;
1571:Generated_Source\PSoC5/USB.c ****                     USB_inBufFull[epNumber] = 0u;
1572:Generated_Source\PSoC5/USB.c **** 
1573:Generated_Source\PSoC5/USB.c ****                     (void) CyDmaChDisable(USB_DmaChan[epNumber]);
1574:Generated_Source\PSoC5/USB.c ****                     /* Configure DMA to send data only for first burst. */
1575:Generated_Source\PSoC5/USB.c ****                     (void) CyDmaTdSetConfiguration(
1576:Generated_Source\PSoC5/USB.c ****                         USB_DmaTd[epNumber], (length > USB_DMA_BYTES_PER_BURST) ?
1577:Generated_Source\PSoC5/USB.c ****                         USB_DMA_BYTES_PER_BURST : length,
1578:Generated_Source\PSoC5/USB.c ****                         USB_DmaNextTd[epNumber], TD_TERMIN_EN | TD_INC_SRC_ADR );
1579:Generated_Source\PSoC5/USB.c ****                     (void) CyDmaTdSetAddress(USB_DmaTd[epNumber], LO16((uint32)  USB_inDataPointer[
1580:Generated_Source\PSoC5/USB.c ****                                                                                LO16((uint32) &USB_A
1581:Generated_Source\PSoC5/USB.c ****                     /* Clear Any potential pending DMA requests before starting DMA channel to tran
1582:Generated_Source\PSoC5/USB.c ****                     (void) CyDmaClearPendingDrq(USB_DmaChan[epNumber]);
1583:Generated_Source\PSoC5/USB.c ****                     /* Enable DMA. */
1584:Generated_Source\PSoC5/USB.c ****                     (void) CyDmaChSetInitialTd(USB_DmaChan[epNumber], USB_DmaTd[epNumber]);
1585:Generated_Source\PSoC5/USB.c ****                     (void) CyDmaChEnable(USB_DmaChan[epNumber], 1u);
1586:Generated_Source\PSoC5/USB.c ****                 #endif /* (CY_PSOC4) */
1587:Generated_Source\PSoC5/USB.c **** 
1588:Generated_Source\PSoC5/USB.c ****                 #if !defined (USB_MANUAL_IN_EP_ARM)
1589:Generated_Source\PSoC5/USB.c ****                     /* Set IN data ready to generate DMA request to load data into endpoint buffer.
1590:Generated_Source\PSoC5/USB.c ****                     USB_ARB_EP_BASE.arbEp[epNumber].epCfg |= USB_ARB_EPX_CFG_IN_DATA_RDY;
1591:Generated_Source\PSoC5/USB.c ****                 #endif  /* (USB_MANUAL_IN_EP_ARM) */
1592:Generated_Source\PSoC5/USB.c **** 
1593:Generated_Source\PSoC5/USB.c ****                     /* IN endpoint will be armed in ARB_ISR(source: IN_BUF_FULL) after first DMA tr
1594:Generated_Source\PSoC5/USB.c ****                 }
1595:Generated_Source\PSoC5/USB.c ****                 else
1596:Generated_Source\PSoC5/USB.c ****                 {
1597:Generated_Source\PSoC5/USB.c ****                     /* When zero-length packet: arm IN endpoint directly. */
1598:Generated_Source\PSoC5/USB.c ****                     USB_SIE_EP_BASE.sieEp[epNumber].epCr0 = USB_EP[epNumber].epMode;
1599:Generated_Source\PSoC5/USB.c ****                 }
1600:Generated_Source\PSoC5/USB.c ****             }
1601:Generated_Source\PSoC5/USB.c ****         #endif /* (USB_EP_MANAGEMENT_DMA_AUTO) */
1602:Generated_Source\PSoC5/USB.c ****     #endif /* (USB_EP_MANAGEMENT_MANUAL) */
1603:Generated_Source\PSoC5/USB.c ****     }
1604:Generated_Source\PSoC5/USB.c **** }
 1166              		.loc 1 1604 0
 1167 00e4 1437     		adds	r7, r7, #20
 1168              		.cfi_def_cfa_offset 12
 1169 00e6 BD46     		mov	sp, r7
 1170              		.cfi_def_cfa_register 13
 1171              		@ sp needed
 1172 00e8 B0BC     		pop	{r4, r5, r7}
 1173              		.cfi_restore 7
 1174              		.cfi_restore 5
 1175              		.cfi_restore 4
 1176              		.cfi_def_cfa_offset 0
 1177 00ea 7047     		bx	lr
 1178              	.L57:
 1179              		.align	2
 1180              	.L56:
 1181 00ec 00000000 		.word	USB_EP
 1182 00f0 FC5F0040 		.word	1073766396
 1183 00f4 70600040 		.word	1073766512
 1184              		.cfi_endproc
 1185              	.LFE11:
 1186              		.size	USB_LoadInEP, .-USB_LoadInEP
 1187              		.section	.text.USB_ReadOutEP,"ax",%progbits
ARM GAS  C:\Users\214016~1\AppData\Local\Temp\ccpUOjiz.s 			page 50


 1188              		.align	2
 1189              		.global	USB_ReadOutEP
 1190              		.thumb
 1191              		.thumb_func
 1192              		.type	USB_ReadOutEP, %function
 1193              	USB_ReadOutEP:
 1194              	.LFB12:
1605:Generated_Source\PSoC5/USB.c **** 
1606:Generated_Source\PSoC5/USB.c **** 
1607:Generated_Source\PSoC5/USB.c **** /*******************************************************************************
1608:Generated_Source\PSoC5/USB.c **** * Function Name: USB_ReadOutEP
1609:Generated_Source\PSoC5/USB.c **** ****************************************************************************//**
1610:Generated_Source\PSoC5/USB.c **** *
1611:Generated_Source\PSoC5/USB.c **** *   This function performs different functionality depending on the Component’s
1612:Generated_Source\PSoC5/USB.c **** *   configured Endpoint Buffer Management. This parameter is defined in the
1613:Generated_Source\PSoC5/USB.c **** *   Descriptor Root in Component Configure window.
1614:Generated_Source\PSoC5/USB.c **** *
1615:Generated_Source\PSoC5/USB.c **** *   *Manual (Static/Dynamic Allocation):*
1616:Generated_Source\PSoC5/USB.c **** *   This function moves the specified number of bytes from endpoint buffer to
1617:Generated_Source\PSoC5/USB.c **** *   system RAM. The number of bytes actually transferred from endpoint buffer to
1618:Generated_Source\PSoC5/USB.c **** *   system RAM is the lesser of the actual number of bytes sent by the host or
1619:Generated_Source\PSoC5/USB.c **** *   the number of bytes requested by the length parameter.
1620:Generated_Source\PSoC5/USB.c **** *
1621:Generated_Source\PSoC5/USB.c **** *   *DMA with Manual Buffer Management:*
1622:Generated_Source\PSoC5/USB.c **** *   Configure DMA to transfer data from endpoint buffer to system RAM. Generate
1623:Generated_Source\PSoC5/USB.c **** *   a DMA request. The firmware must wait until the DMA completes the data
1624:Generated_Source\PSoC5/USB.c **** *   transfer after calling the USB_ReadOutEP() API. For example,
1625:Generated_Source\PSoC5/USB.c **** *   by checking EPstate:
1626:Generated_Source\PSoC5/USB.c **** *
1627:Generated_Source\PSoC5/USB.c **** *   \snippet /USBFS_sut_02.cydsn/main.c checking EPstatey
1628:Generated_Source\PSoC5/USB.c **** *
1629:Generated_Source\PSoC5/USB.c **** *   The USBFS_EnableOutEP() has to be called to allow host to write data into
1630:Generated_Source\PSoC5/USB.c **** *   the endpoint buffer after DMA has completed transfer data from OUT endpoint
1631:Generated_Source\PSoC5/USB.c **** *   buffer to SRAM.
1632:Generated_Source\PSoC5/USB.c **** *
1633:Generated_Source\PSoC5/USB.c **** *   *DMA with Automatic Buffer Management:*
1634:Generated_Source\PSoC5/USB.c **** *   Configure DMA. This is required only once and automatically generates DMA
1635:Generated_Source\PSoC5/USB.c **** *   requests as data arrives
1636:Generated_Source\PSoC5/USB.c **** *
1637:Generated_Source\PSoC5/USB.c **** *  \param epNumber: Contains the data endpoint number.
1638:Generated_Source\PSoC5/USB.c **** *            Valid values are between 1 and 8.
1639:Generated_Source\PSoC5/USB.c **** *  \param pData: A pointer to a data array from which the data for the endpoint
1640:Generated_Source\PSoC5/USB.c **** *         space is loaded.
1641:Generated_Source\PSoC5/USB.c **** *  \param length: The number of bytes to transfer from the USB Out endpoint and
1642:Generated_Source\PSoC5/USB.c **** *          loads it into data array. Valid values are between 0 and 1023. The
1643:Generated_Source\PSoC5/USB.c **** *          function moves fewer than the requested number of bytes if the host
1644:Generated_Source\PSoC5/USB.c **** *          sends fewer bytes than requested.
1645:Generated_Source\PSoC5/USB.c **** *
1646:Generated_Source\PSoC5/USB.c **** * \return
1647:Generated_Source\PSoC5/USB.c **** *  Number of bytes received, 0 for an invalid endpoint.
1648:Generated_Source\PSoC5/USB.c **** *
1649:Generated_Source\PSoC5/USB.c **** * \reentrant
1650:Generated_Source\PSoC5/USB.c **** *  No.
1651:Generated_Source\PSoC5/USB.c **** *
1652:Generated_Source\PSoC5/USB.c **** *******************************************************************************/
1653:Generated_Source\PSoC5/USB.c **** uint16 USB_ReadOutEP(uint8 epNumber, uint8 pData[], uint16 length)
1654:Generated_Source\PSoC5/USB.c ****                                                                         
ARM GAS  C:\Users\214016~1\AppData\Local\Temp\ccpUOjiz.s 			page 51


1655:Generated_Source\PSoC5/USB.c **** {
 1195              		.loc 1 1655 0
 1196              		.cfi_startproc
 1197              		@ args = 0, pretend = 0, frame = 16
 1198              		@ frame_needed = 1, uses_anonymous_args = 0
 1199 0000 80B5     		push	{r7, lr}
 1200              		.cfi_def_cfa_offset 8
 1201              		.cfi_offset 7, -8
 1202              		.cfi_offset 14, -4
 1203 0002 84B0     		sub	sp, sp, #16
 1204              		.cfi_def_cfa_offset 24
 1205 0004 00AF     		add	r7, sp, #0
 1206              		.cfi_def_cfa_register 7
 1207 0006 0346     		mov	r3, r0
 1208 0008 3960     		str	r1, [r7]
 1209 000a FB71     		strb	r3, [r7, #7]
 1210 000c 1346     		mov	r3, r2	@ movhi
 1211 000e BB80     		strh	r3, [r7, #4]	@ movhi
1656:Generated_Source\PSoC5/USB.c ****     if ((pData != NULL) && (epNumber > USB_EP0) && (epNumber < USB_MAX_EP))
 1212              		.loc 1 1656 0
 1213 0010 3B68     		ldr	r3, [r7]
 1214 0012 002B     		cmp	r3, #0
 1215 0014 30D0     		beq	.L59
 1216              		.loc 1 1656 0 is_stmt 0 discriminator 1
 1217 0016 FB79     		ldrb	r3, [r7, #7]	@ zero_extendqisi2
 1218 0018 002B     		cmp	r3, #0
 1219 001a 2DD0     		beq	.L59
 1220              		.loc 1 1656 0 discriminator 2
 1221 001c FB79     		ldrb	r3, [r7, #7]	@ zero_extendqisi2
 1222 001e 082B     		cmp	r3, #8
 1223 0020 2AD8     		bhi	.L59
1657:Generated_Source\PSoC5/USB.c ****     {
1658:Generated_Source\PSoC5/USB.c ****     #if (!USB_EP_MANAGEMENT_DMA_AUTO)
1659:Generated_Source\PSoC5/USB.c ****         /* Adjust requested length to available data. */
1660:Generated_Source\PSoC5/USB.c ****         length = (length > USB_GetEPCount(epNumber)) ? USB_GetEPCount(epNumber) : length;
 1224              		.loc 1 1660 0 is_stmt 1
 1225 0022 FB79     		ldrb	r3, [r7, #7]	@ zero_extendqisi2
 1226 0024 1846     		mov	r0, r3
 1227 0026 FFF7FEFF 		bl	USB_GetEPCount
 1228 002a 0346     		mov	r3, r0
 1229 002c 1A46     		mov	r2, r3
 1230 002e BB88     		ldrh	r3, [r7, #4]
 1231 0030 9342     		cmp	r3, r2
 1232 0032 05D9     		bls	.L60
 1233              		.loc 1 1660 0 is_stmt 0 discriminator 1
 1234 0034 FB79     		ldrb	r3, [r7, #7]	@ zero_extendqisi2
 1235 0036 1846     		mov	r0, r3
 1236 0038 FFF7FEFF 		bl	USB_GetEPCount
 1237 003c 0346     		mov	r3, r0
 1238 003e 00E0     		b	.L61
 1239              	.L60:
 1240              		.loc 1 1660 0 discriminator 2
 1241 0040 BB88     		ldrh	r3, [r7, #4]
 1242              	.L61:
 1243              		.loc 1 1660 0 discriminator 4
 1244 0042 BB80     		strh	r3, [r7, #4]	@ movhi
 1245              	.LBB3:
ARM GAS  C:\Users\214016~1\AppData\Local\Temp\ccpUOjiz.s 			page 52


1661:Generated_Source\PSoC5/USB.c ****     #endif /* (!USB_EP_MANAGEMENT_DMA_AUTO) */
1662:Generated_Source\PSoC5/USB.c **** 
1663:Generated_Source\PSoC5/USB.c ****     #if (USB_EP_MANAGEMENT_MANUAL)
1664:Generated_Source\PSoC5/USB.c ****         {
1665:Generated_Source\PSoC5/USB.c ****             /* Copy data using arbiter data register. */
1666:Generated_Source\PSoC5/USB.c ****             uint16 i;
1667:Generated_Source\PSoC5/USB.c ****             for (i = 0u; i < length; ++i)
 1246              		.loc 1 1667 0 is_stmt 1 discriminator 4
 1247 0044 0023     		movs	r3, #0
 1248 0046 FB81     		strh	r3, [r7, #14]	@ movhi
 1249 0048 0DE0     		b	.L62
 1250              	.L63:
1668:Generated_Source\PSoC5/USB.c ****             {
1669:Generated_Source\PSoC5/USB.c ****                 pData[i] = (uint8) USB_ARB_EP_BASE.arbEp[epNumber].rwDr;
 1251              		.loc 1 1669 0 discriminator 3
 1252 004a FB89     		ldrh	r3, [r7, #14]
 1253 004c 3A68     		ldr	r2, [r7]
 1254 004e 1344     		add	r3, r3, r2
 1255 0050 0D49     		ldr	r1, .L66
 1256 0052 FA79     		ldrb	r2, [r7, #7]	@ zero_extendqisi2
 1257 0054 1201     		lsls	r2, r2, #4
 1258 0056 0A44     		add	r2, r2, r1
 1259 0058 0832     		adds	r2, r2, #8
 1260 005a 1278     		ldrb	r2, [r2]
 1261 005c D2B2     		uxtb	r2, r2
 1262 005e 1A70     		strb	r2, [r3]
1667:Generated_Source\PSoC5/USB.c ****             {
 1263              		.loc 1 1667 0 discriminator 3
 1264 0060 FB89     		ldrh	r3, [r7, #14]	@ movhi
 1265 0062 0133     		adds	r3, r3, #1
 1266 0064 FB81     		strh	r3, [r7, #14]	@ movhi
 1267              	.L62:
1667:Generated_Source\PSoC5/USB.c ****             {
 1268              		.loc 1 1667 0 is_stmt 0 discriminator 1
 1269 0066 FA89     		ldrh	r2, [r7, #14]
 1270 0068 BB88     		ldrh	r3, [r7, #4]
 1271 006a 9A42     		cmp	r2, r3
 1272 006c EDD3     		bcc	.L63
 1273              	.LBE3:
1670:Generated_Source\PSoC5/USB.c ****             }
1671:Generated_Source\PSoC5/USB.c ****         }
1672:Generated_Source\PSoC5/USB.c **** 
1673:Generated_Source\PSoC5/USB.c ****         /* Arm OUT endpoint after data has been copied from endpoint buffer. */
1674:Generated_Source\PSoC5/USB.c ****         USB_EnableOutEP(epNumber);
 1274              		.loc 1 1674 0 is_stmt 1
 1275 006e FB79     		ldrb	r3, [r7, #7]	@ zero_extendqisi2
 1276 0070 1846     		mov	r0, r3
 1277 0072 FFF7FEFF 		bl	USB_EnableOutEP
 1278 0076 01E0     		b	.L64
 1279              	.L59:
1675:Generated_Source\PSoC5/USB.c ****     #else
1676:Generated_Source\PSoC5/USB.c **** 
1677:Generated_Source\PSoC5/USB.c ****         #if (CY_PSOC3 || CY_PSOC5LP)
1678:Generated_Source\PSoC5/USB.c ****             /* Initialize DMA if it was not initialized. */
1679:Generated_Source\PSoC5/USB.c ****             if (DMA_INVALID_TD == USB_DmaTd[epNumber])
1680:Generated_Source\PSoC5/USB.c ****             {
1681:Generated_Source\PSoC5/USB.c ****                 USB_InitEP_DMA(epNumber, pData);
ARM GAS  C:\Users\214016~1\AppData\Local\Temp\ccpUOjiz.s 			page 53


1682:Generated_Source\PSoC5/USB.c ****             }
1683:Generated_Source\PSoC5/USB.c ****         #endif /* (CY_PSOC3 || CY_PSOC5LP) */
1684:Generated_Source\PSoC5/USB.c **** 
1685:Generated_Source\PSoC5/USB.c ****         #if (USB_EP_MANAGEMENT_DMA_MANUAL)
1686:Generated_Source\PSoC5/USB.c ****         #if (CY_PSOC4)
1687:Generated_Source\PSoC5/USB.c ****         {
1688:Generated_Source\PSoC5/USB.c ****             uint32 channelNum = (uint32) USB_DmaChan[epNumber];
1689:Generated_Source\PSoC5/USB.c **** 
1690:Generated_Source\PSoC5/USB.c ****             /* Disable DMA channel: start configuration. */
1691:Generated_Source\PSoC5/USB.c ****             USB_CyDmaChDisable(channelNum);
1692:Generated_Source\PSoC5/USB.c **** 
1693:Generated_Source\PSoC5/USB.c ****             /* Configure source and destination. */
1694:Generated_Source\PSoC5/USB.c ****             USB_CyDmaSetSrcAddress(channelNum, USB_DMA_DESCR0, (void*) &USB_ARB_EP_BASE.arbEp[epNum
1695:Generated_Source\PSoC5/USB.c ****             USB_CyDmaSetDstAddress(channelNum, USB_DMA_DESCR0, (void*) pData);
1696:Generated_Source\PSoC5/USB.c **** 
1697:Generated_Source\PSoC5/USB.c ****             /* Configure DMA descriptor. */
1698:Generated_Source\PSoC5/USB.c ****             USB_CyDmaSetConfiguration(channelNum, USB_DMA_DESCR0, USB_DMA_COMMON_CFG | (uint16)(len
1699:Generated_Source\PSoC5/USB.c ****                                                     CYDMA_BYTE | CYDMA_WORD_ELEMENT | CYDMA_INC_DST
1700:Generated_Source\PSoC5/USB.c **** 
1701:Generated_Source\PSoC5/USB.c ****             /* Validate descriptor to execute on following DMA request. */
1702:Generated_Source\PSoC5/USB.c ****             USB_CyDmaValidateDescriptor(channelNum, USB_DMA_DESCR0);
1703:Generated_Source\PSoC5/USB.c **** 
1704:Generated_Source\PSoC5/USB.c ****             /* Enable DMA channel: configuration complete. */
1705:Generated_Source\PSoC5/USB.c ****             USB_CyDmaChEnable(channelNum);
1706:Generated_Source\PSoC5/USB.c ****         }
1707:Generated_Source\PSoC5/USB.c ****         #else
1708:Generated_Source\PSoC5/USB.c ****             /* Configure DMA to transfer data. */
1709:Generated_Source\PSoC5/USB.c ****             (void) CyDmaChDisable(USB_DmaChan[epNumber]);
1710:Generated_Source\PSoC5/USB.c ****             (void) CyDmaTdSetConfiguration(USB_DmaTd[epNumber], length, CY_DMA_DISABLE_TD, TD_TERMI
1711:Generated_Source\PSoC5/USB.c ****             (void) CyDmaTdSetAddress(USB_DmaTd[epNumber], LO16((uint32) &USB_ARB_EP_BASE.arbEp[epNu
1712:Generated_Source\PSoC5/USB.c **** 
1713:Generated_Source\PSoC5/USB.c ****             /* Enable DMA channel. */
1714:Generated_Source\PSoC5/USB.c ****             (void) CyDmaChSetInitialTd(USB_DmaChan[epNumber], USB_DmaTd[epNumber]);
1715:Generated_Source\PSoC5/USB.c ****             (void) CyDmaChEnable(USB_DmaChan[epNumber], 1u);
1716:Generated_Source\PSoC5/USB.c ****         #endif /* (CY_PSOC4) */
1717:Generated_Source\PSoC5/USB.c **** 
1718:Generated_Source\PSoC5/USB.c ****             /* Generate DMA request. */
1719:Generated_Source\PSoC5/USB.c ****             USB_ARB_EP_BASE.arbEp[epNumber].epCfg |=  (uint8)  USB_ARB_EPX_CFG_DMA_REQ;
1720:Generated_Source\PSoC5/USB.c ****             USB_ARB_EP_BASE.arbEp[epNumber].epCfg &=  (uint8) ~USB_ARB_EPX_CFG_DMA_REQ;
1721:Generated_Source\PSoC5/USB.c **** 
1722:Generated_Source\PSoC5/USB.c ****             /* OUT endpoint has to be armed again by user when DMA transfers have been completed.
1723:Generated_Source\PSoC5/USB.c ****             * NO_EVENT_PENDING: notifies that data has been copied from endpoint buffer.
1724:Generated_Source\PSoC5/USB.c ****             */
1725:Generated_Source\PSoC5/USB.c **** 
1726:Generated_Source\PSoC5/USB.c ****         #endif /* (USB_EP_MANAGEMENT_DMA_MANUAL) */
1727:Generated_Source\PSoC5/USB.c **** 
1728:Generated_Source\PSoC5/USB.c ****         #if (USB_EP_MANAGEMENT_DMA_AUTO)
1729:Generated_Source\PSoC5/USB.c ****         #if (CY_PSOC4)
1730:Generated_Source\PSoC5/USB.c ****         {
1731:Generated_Source\PSoC5/USB.c ****             uint32 channelNum = (uint32) USB_DmaChan[epNumber];
1732:Generated_Source\PSoC5/USB.c ****             uint32 lengthDescr0, lengthDescr1;
1733:Generated_Source\PSoC5/USB.c **** 
1734:Generated_Source\PSoC5/USB.c ****             /* Get number of full bursts. */
1735:Generated_Source\PSoC5/USB.c ****             USB_DmaEpBurstCnt[epNumber] = (uint8) (length / USB_DMA_BYTES_PER_BURST);
1736:Generated_Source\PSoC5/USB.c **** 
1737:Generated_Source\PSoC5/USB.c ****             /* Get number of elements in the last burst. */
1738:Generated_Source\PSoC5/USB.c ****             USB_DmaEpLastBurstEl[epNumber] = (uint8) (length % USB_DMA_BYTES_PER_BURST);
ARM GAS  C:\Users\214016~1\AppData\Local\Temp\ccpUOjiz.s 			page 54


1739:Generated_Source\PSoC5/USB.c **** 
1740:Generated_Source\PSoC5/USB.c ****             /* Get total number of bursts. */
1741:Generated_Source\PSoC5/USB.c ****             USB_DmaEpBurstCnt[epNumber] += (0u != USB_DmaEpLastBurstEl[epNumber]) ? 1u : 0u;
1742:Generated_Source\PSoC5/USB.c **** 
1743:Generated_Source\PSoC5/USB.c ****             /* Adjust number of the data elements transfered in last burst. */
1744:Generated_Source\PSoC5/USB.c ****             USB_DmaEpLastBurstEl[epNumber] = (0u != USB_DmaEpLastBurstEl[epNumber]) ?
1745:Generated_Source\PSoC5/USB.c ****                                                                   (USB_DmaEpLastBurstEl[epNumber] -
1746:Generated_Source\PSoC5/USB.c ****                                                                   (USB_DMA_BYTES_PER_BURST - 1u);
1747:Generated_Source\PSoC5/USB.c **** 
1748:Generated_Source\PSoC5/USB.c ****             /* Get number of data elements to transfer for descriptor 0 and 1. */
1749:Generated_Source\PSoC5/USB.c ****             lengthDescr0 = (1u == USB_DmaEpBurstCnt[epNumber]) ? USB_DmaEpLastBurstEl[epNumber] : (
1750:Generated_Source\PSoC5/USB.c ****             lengthDescr1 = (2u == USB_DmaEpBurstCnt[epNumber]) ? USB_DmaEpLastBurstEl[epNumber] : (
1751:Generated_Source\PSoC5/USB.c **** 
1752:Generated_Source\PSoC5/USB.c ****             /* Mark if revert number of data elements in descriptor after transfer completion. */
1753:Generated_Source\PSoC5/USB.c ****             USB_DmaEpLastBurstEl[epNumber] |= (USB_DmaEpBurstCnt[epNumber] > 2u) ? USB_DMA_DESCR_RE
1754:Generated_Source\PSoC5/USB.c **** 
1755:Generated_Source\PSoC5/USB.c ****             /* Mark last descriptor to be executed. */
1756:Generated_Source\PSoC5/USB.c ****             USB_DmaEpLastBurstEl[epNumber] |= (0u != (USB_DmaEpBurstCnt[epNumber] & 0x1u)) ?
1757:Generated_Source\PSoC5/USB.c ****                                                                     USB_DMA_DESCR0_MASK : USB_DMA_D
1758:Generated_Source\PSoC5/USB.c **** 
1759:Generated_Source\PSoC5/USB.c ****             /* Store address of buffer and burst counter for endpoint. */
1760:Generated_Source\PSoC5/USB.c ****             USB_DmaEpBufferAddrBackup[epNumber] = (uint32) pData;
1761:Generated_Source\PSoC5/USB.c ****             USB_DmaEpBurstCntBackup[epNumber]   = USB_DmaEpBurstCnt[epNumber];
1762:Generated_Source\PSoC5/USB.c **** 
1763:Generated_Source\PSoC5/USB.c ****             /* Adjust burst counter taking to account: 2 valid descriptors and interrupt trigger af
1764:Generated_Source\PSoC5/USB.c ****             USB_DmaEpBurstCnt[epNumber] = USB_DMA_GET_BURST_CNT(USB_DmaEpBurstCnt[epNumber]);
1765:Generated_Source\PSoC5/USB.c **** 
1766:Generated_Source\PSoC5/USB.c ****             /* Disable DMA channel: start configuration. */
1767:Generated_Source\PSoC5/USB.c ****             USB_CyDmaChDisable(channelNum);
1768:Generated_Source\PSoC5/USB.c **** 
1769:Generated_Source\PSoC5/USB.c ****             /* Set destination address. */
1770:Generated_Source\PSoC5/USB.c ****             USB_CyDmaSetSrcAddress(channelNum, USB_DMA_DESCR0, (void*) &USB_ARB_EP_BASE.arbEp[epNum
1771:Generated_Source\PSoC5/USB.c ****             USB_CyDmaSetSrcAddress(channelNum, USB_DMA_DESCR1, (void*) &USB_ARB_EP_BASE.arbEp[epNum
1772:Generated_Source\PSoC5/USB.c **** 
1773:Generated_Source\PSoC5/USB.c ****             USB_CyDmaSetDstAddress(channelNum, USB_DMA_DESCR0, (void*) ((uint32) pData));
1774:Generated_Source\PSoC5/USB.c ****             USB_CyDmaSetDstAddress(channelNum, USB_DMA_DESCR1, (void*) ((uint32) pData + USB_DMA_BY
1775:Generated_Source\PSoC5/USB.c **** 
1776:Generated_Source\PSoC5/USB.c ****             /* Configure DMA descriptor. */
1777:Generated_Source\PSoC5/USB.c ****             USB_CyDmaSetConfiguration(channelNum, USB_DMA_DESCR0, USB_DMA_COMMON_CFG  | lengthDescr
1778:Generated_Source\PSoC5/USB.c ****                                                     CYDMA_BYTE | CYDMA_WORD_ELEMENT | CYDMA_INC_DST
1779:Generated_Source\PSoC5/USB.c **** 
1780:Generated_Source\PSoC5/USB.c ****             /* Configure DMA descriptor. */
1781:Generated_Source\PSoC5/USB.c ****             USB_CyDmaSetConfiguration(channelNum, USB_DMA_DESCR1, USB_DMA_COMMON_CFG  | lengthDescr
1782:Generated_Source\PSoC5/USB.c ****                                                     CYDMA_BYTE | CYDMA_WORD_ELEMENT | CYDMA_INC_DST
1783:Generated_Source\PSoC5/USB.c **** 
1784:Generated_Source\PSoC5/USB.c ****             /* Enable interrupt from DMA channel. */
1785:Generated_Source\PSoC5/USB.c ****             USB_CyDmaSetInterruptMask(channelNum);
1786:Generated_Source\PSoC5/USB.c **** 
1787:Generated_Source\PSoC5/USB.c ****             /* Validate DMA descriptor 0 and 1. */
1788:Generated_Source\PSoC5/USB.c ****             USB_CyDmaValidateDescriptor(channelNum, USB_DMA_DESCR0);
1789:Generated_Source\PSoC5/USB.c **** 
1790:Generated_Source\PSoC5/USB.c ****             if (USB_DmaEpBurstCntBackup[epNumber] > 1u)
1791:Generated_Source\PSoC5/USB.c ****             {
1792:Generated_Source\PSoC5/USB.c ****                 USB_CyDmaValidateDescriptor(channelNum, USB_DMA_DESCR1);
1793:Generated_Source\PSoC5/USB.c ****             }
1794:Generated_Source\PSoC5/USB.c **** 
1795:Generated_Source\PSoC5/USB.c ****             /* Enable DMA channel: configuration complete. */
ARM GAS  C:\Users\214016~1\AppData\Local\Temp\ccpUOjiz.s 			page 55


1796:Generated_Source\PSoC5/USB.c ****             USB_CyDmaChEnable(channelNum);
1797:Generated_Source\PSoC5/USB.c ****         }
1798:Generated_Source\PSoC5/USB.c ****         #else
1799:Generated_Source\PSoC5/USB.c ****             (void) CyDmaChDisable(USB_DmaChan[epNumber]);
1800:Generated_Source\PSoC5/USB.c ****             (void) CyDmaTdSetConfiguration(USB_DmaTd[epNumber], length,  USB_DmaTd[epNumber], TD_TE
1801:Generated_Source\PSoC5/USB.c ****             (void) CyDmaTdSetAddress(USB_DmaTd[epNumber], LO16((uint32) &USB_ARB_EP_BASE.arbEp[epNu
1802:Generated_Source\PSoC5/USB.c **** 
1803:Generated_Source\PSoC5/USB.c ****             /* Clear Any potential pending DMA requests before starting DMA channel to transfer dat
1804:Generated_Source\PSoC5/USB.c ****             (void) CyDmaClearPendingDrq(USB_DmaChan[epNumber]);
1805:Generated_Source\PSoC5/USB.c **** 
1806:Generated_Source\PSoC5/USB.c ****             /* Enable DMA channel. */
1807:Generated_Source\PSoC5/USB.c ****             (void) CyDmaChSetInitialTd(USB_DmaChan[epNumber], USB_DmaTd[epNumber]);
1808:Generated_Source\PSoC5/USB.c ****             (void) CyDmaChEnable(USB_DmaChan[epNumber], 1u);
1809:Generated_Source\PSoC5/USB.c ****         #endif /* (CY_PSOC4) */
1810:Generated_Source\PSoC5/USB.c **** 
1811:Generated_Source\PSoC5/USB.c ****             /* OUT endpoint has to be armed again by user when DMA transfers have been completed.
1812:Generated_Source\PSoC5/USB.c ****             * NO_EVENT_PENDING: notifies that data has been copied from endpoint buffer.
1813:Generated_Source\PSoC5/USB.c ****             */
1814:Generated_Source\PSoC5/USB.c **** 
1815:Generated_Source\PSoC5/USB.c ****         #endif /* (USB_EP_MANAGEMENT_DMA_AUTO) */
1816:Generated_Source\PSoC5/USB.c ****     #endif /* (USB_EP_MANAGEMENT_MANUAL) */
1817:Generated_Source\PSoC5/USB.c ****     }
1818:Generated_Source\PSoC5/USB.c ****     else
1819:Generated_Source\PSoC5/USB.c ****     {
1820:Generated_Source\PSoC5/USB.c ****         length = 0u;
 1280              		.loc 1 1820 0
 1281 0078 0023     		movs	r3, #0
 1282 007a BB80     		strh	r3, [r7, #4]	@ movhi
 1283              	.L64:
1821:Generated_Source\PSoC5/USB.c ****     }
1822:Generated_Source\PSoC5/USB.c **** 
1823:Generated_Source\PSoC5/USB.c ****     return (length);
 1284              		.loc 1 1823 0
 1285 007c BB88     		ldrh	r3, [r7, #4]
1824:Generated_Source\PSoC5/USB.c **** }
 1286              		.loc 1 1824 0
 1287 007e 1846     		mov	r0, r3
 1288 0080 1037     		adds	r7, r7, #16
 1289              		.cfi_def_cfa_offset 8
 1290 0082 BD46     		mov	sp, r7
 1291              		.cfi_def_cfa_register 13
 1292              		@ sp needed
 1293 0084 80BD     		pop	{r7, pc}
 1294              	.L67:
 1295 0086 00BF     		.align	2
 1296              	.L66:
 1297 0088 70600040 		.word	1073766512
 1298              		.cfi_endproc
 1299              	.LFE12:
 1300              		.size	USB_ReadOutEP, .-USB_ReadOutEP
 1301              		.section	.text.USB_EnableOutEP,"ax",%progbits
 1302              		.align	2
 1303              		.global	USB_EnableOutEP
 1304              		.thumb
 1305              		.thumb_func
 1306              		.type	USB_EnableOutEP, %function
 1307              	USB_EnableOutEP:
ARM GAS  C:\Users\214016~1\AppData\Local\Temp\ccpUOjiz.s 			page 56


 1308              	.LFB13:
1825:Generated_Source\PSoC5/USB.c **** 
1826:Generated_Source\PSoC5/USB.c **** 
1827:Generated_Source\PSoC5/USB.c **** #if (USB_16BITS_EP_ACCESS_ENABLE)
1828:Generated_Source\PSoC5/USB.c **** /*******************************************************************************
1829:Generated_Source\PSoC5/USB.c **** * Function Name: USB_LoadInEP16
1830:Generated_Source\PSoC5/USB.c **** ****************************************************************************//**
1831:Generated_Source\PSoC5/USB.c **** *
1832:Generated_Source\PSoC5/USB.c **** *  This function performs different functionality depending on the Component’s
1833:Generated_Source\PSoC5/USB.c **** *  configured Endpoint Buffer Management. This parameter is defined in
1834:Generated_Source\PSoC5/USB.c **** *  the Descriptor Root in Component Configure window.
1835:Generated_Source\PSoC5/USB.c **** *
1836:Generated_Source\PSoC5/USB.c **** *  *Manual (Static/Dynamic Allocation):*
1837:Generated_Source\PSoC5/USB.c **** *  This function loads and enables the specified USB data endpoint for an IN
1838:Generated_Source\PSoC5/USB.c **** *  data transfer.
1839:Generated_Source\PSoC5/USB.c **** *
1840:Generated_Source\PSoC5/USB.c **** *  *DMA with Manual Buffer Management:*
1841:Generated_Source\PSoC5/USB.c **** *  Configures DMA for a data transfer from system RAM to endpoint buffer.
1842:Generated_Source\PSoC5/USB.c **** *  Generates request for a transfer.
1843:Generated_Source\PSoC5/USB.c **** *
1844:Generated_Source\PSoC5/USB.c **** *  *DMA with Automatic Buffer Management:*
1845:Generated_Source\PSoC5/USB.c **** *  Configures DMA. This is required only once, so it is done only when parameter
1846:Generated_Source\PSoC5/USB.c **** *  pData is not NULL. When the pData pointer is NULL, the function skips this
1847:Generated_Source\PSoC5/USB.c **** *  task. Sets Data ready status: This generates the first DMA transfer and
1848:Generated_Source\PSoC5/USB.c **** *  prepares data in endpoint buffer.
1849:Generated_Source\PSoC5/USB.c **** *
1850:Generated_Source\PSoC5/USB.c **** *  \param epNumber Contains the data endpoint number.
1851:Generated_Source\PSoC5/USB.c **** *        Valid values are between 1 and 8.
1852:Generated_Source\PSoC5/USB.c **** *  \param *pData A pointer to a data array from which the data for the endpoint
1853:Generated_Source\PSoC5/USB.c **** *        space is loaded. It shall be ensured that this pointer address is even
1854:Generated_Source\PSoC5/USB.c **** *        to ensure the 16-bit transfer is aligned to even address. Else, a hard
1855:Generated_Source\PSoC5/USB.c **** *        fault condition can occur.
1856:Generated_Source\PSoC5/USB.c **** *  \param length The number of bytes to transfer from the array and then send as
1857:Generated_Source\PSoC5/USB.c **** *        a result of an IN request. Valid values are between 0 and 512 (1023 for
1858:Generated_Source\PSoC5/USB.c **** *        DMA with Automatic Buffer Management mode). The value 512 is applicable
1859:Generated_Source\PSoC5/USB.c **** *        if only one endpoint is used.
1860:Generated_Source\PSoC5/USB.c **** *
1861:Generated_Source\PSoC5/USB.c **** * \reentrant
1862:Generated_Source\PSoC5/USB.c **** *  No.
1863:Generated_Source\PSoC5/USB.c **** *
1864:Generated_Source\PSoC5/USB.c **** *******************************************************************************/
1865:Generated_Source\PSoC5/USB.c **** void USB_LoadInEP16(uint8 epNumber, const uint8 pData[], uint16 length)
1866:Generated_Source\PSoC5/USB.c **** {
1867:Generated_Source\PSoC5/USB.c ****     /* Check array alignment on half-word boundary. */
1868:Generated_Source\PSoC5/USB.c ****     CYASSERT(0u == (((uint32) pData) & 0x01u));
1869:Generated_Source\PSoC5/USB.c **** 
1870:Generated_Source\PSoC5/USB.c ****     if ((epNumber > USB_EP0) && (epNumber < USB_MAX_EP))
1871:Generated_Source\PSoC5/USB.c ****     {
1872:Generated_Source\PSoC5/USB.c ****     #if (!USB_EP_MANAGEMENT_DMA_AUTO)
1873:Generated_Source\PSoC5/USB.c ****         /* Limit length to available buffer USB IP buffer size. */
1874:Generated_Source\PSoC5/USB.c ****         if (length > (USB_EPX_DATA_BUF_MAX - USB_EP[epNumber].buffOffset))
1875:Generated_Source\PSoC5/USB.c ****         {
1876:Generated_Source\PSoC5/USB.c ****             length = USB_EPX_DATA_BUF_MAX - USB_EP[epNumber].buffOffset;
1877:Generated_Source\PSoC5/USB.c ****         }
1878:Generated_Source\PSoC5/USB.c ****     #endif /* (!USB_EP_MANAGEMENT_DMA_AUTO) */
1879:Generated_Source\PSoC5/USB.c **** 
1880:Generated_Source\PSoC5/USB.c ****         /* Set count and data toggle. */
ARM GAS  C:\Users\214016~1\AppData\Local\Temp\ccpUOjiz.s 			page 57


1881:Generated_Source\PSoC5/USB.c ****         USB_SIE_EP_BASE.sieEp[epNumber].epCnt0 = (uint32) HI8(length) | USB_EP[epNumber].epToggle;
1882:Generated_Source\PSoC5/USB.c ****         USB_SIE_EP_BASE.sieEp[epNumber].epCnt1 = (uint32) LO8(length);
1883:Generated_Source\PSoC5/USB.c **** 
1884:Generated_Source\PSoC5/USB.c ****         /* Adjust requested length: 2 bytes are handled at one data register access. */
1885:Generated_Source\PSoC5/USB.c ****         length += (length & 0x01u);
1886:Generated_Source\PSoC5/USB.c **** 
1887:Generated_Source\PSoC5/USB.c ****     #if (USB_EP_MANAGEMENT_MANUAL)
1888:Generated_Source\PSoC5/USB.c ****         if (NULL != pData)
1889:Generated_Source\PSoC5/USB.c ****         {
1890:Generated_Source\PSoC5/USB.c ****             /* Convert uint8 array to uint16. */
1891:Generated_Source\PSoC5/USB.c ****             const uint16 *dataBuf = (uint16 *) pData;
1892:Generated_Source\PSoC5/USB.c **** 
1893:Generated_Source\PSoC5/USB.c ****             /* Copy data using 16-bits arbiter data register. */
1894:Generated_Source\PSoC5/USB.c ****             uint16 i;
1895:Generated_Source\PSoC5/USB.c ****             for (i = 0u; i < (length >> 1u); ++i)
1896:Generated_Source\PSoC5/USB.c ****             {
1897:Generated_Source\PSoC5/USB.c ****                 USB_ARB_EP16_BASE.arbEp[epNumber].rwDr16 = dataBuf[i];
1898:Generated_Source\PSoC5/USB.c ****             }
1899:Generated_Source\PSoC5/USB.c ****         }
1900:Generated_Source\PSoC5/USB.c **** 
1901:Generated_Source\PSoC5/USB.c ****         /* IN endpoint buffer is full - read to be read. */
1902:Generated_Source\PSoC5/USB.c ****         USB_EP[epNumber].apiEpState = USB_NO_EVENT_PENDING;
1903:Generated_Source\PSoC5/USB.c **** 
1904:Generated_Source\PSoC5/USB.c ****         /* Arm IN endpoint. */
1905:Generated_Source\PSoC5/USB.c ****         USB_SIE_EP_BASE.sieEp[epNumber].epCr0 = USB_EP[epNumber].epMode;
1906:Generated_Source\PSoC5/USB.c **** 
1907:Generated_Source\PSoC5/USB.c ****     #else
1908:Generated_Source\PSoC5/USB.c **** 
1909:Generated_Source\PSoC5/USB.c ****         #if (USB_EP_MANAGEMENT_DMA_MANUAL)
1910:Generated_Source\PSoC5/USB.c ****             /* IN endpoint buffer will be fully loaded by DMA shortly. */
1911:Generated_Source\PSoC5/USB.c ****             USB_EP[epNumber].apiEpState = USB_NO_EVENT_PENDING;
1912:Generated_Source\PSoC5/USB.c **** 
1913:Generated_Source\PSoC5/USB.c ****             if ((pData != NULL) && (length > 0u))
1914:Generated_Source\PSoC5/USB.c ****             {
1915:Generated_Source\PSoC5/USB.c ****                 uint32 channelNum = (uint32) USB_DmaChan[epNumber];
1916:Generated_Source\PSoC5/USB.c **** 
1917:Generated_Source\PSoC5/USB.c ****                 /* Disable DMA channel: start configuration. */
1918:Generated_Source\PSoC5/USB.c ****                 USB_CyDmaChDisable(channelNum);
1919:Generated_Source\PSoC5/USB.c **** 
1920:Generated_Source\PSoC5/USB.c ****                 /* Configure source and destination. */
1921:Generated_Source\PSoC5/USB.c ****                 USB_CyDmaSetSrcAddress(channelNum, USB_DMA_DESCR0, (void*) pData);
1922:Generated_Source\PSoC5/USB.c ****                 USB_CyDmaSetDstAddress(channelNum, USB_DMA_DESCR0, (void*) &USB_ARB_EP16_BASE.arbEp
1923:Generated_Source\PSoC5/USB.c **** 
1924:Generated_Source\PSoC5/USB.c ****                 /* Configure DMA descriptor. */
1925:Generated_Source\PSoC5/USB.c ****                 length = (length >> 1u) - 1u;
1926:Generated_Source\PSoC5/USB.c ****                 USB_CyDmaSetConfiguration(channelNum, USB_DMA_DESCR0, USB_DMA_COMMON_CFG | length |
1927:Generated_Source\PSoC5/USB.c ****                                                         CYDMA_HALFWORD | CYDMA_ELEMENT_WORD | CYDMA
1928:Generated_Source\PSoC5/USB.c **** 
1929:Generated_Source\PSoC5/USB.c ****                 /* Validate descriptor to execute on following DMA request. */
1930:Generated_Source\PSoC5/USB.c ****                 USB_CyDmaValidateDescriptor(channelNum, USB_DMA_DESCR0);
1931:Generated_Source\PSoC5/USB.c **** 
1932:Generated_Source\PSoC5/USB.c ****                 /* Enable DMA channel: configuration complete. */
1933:Generated_Source\PSoC5/USB.c ****                 USB_CyDmaChEnable(channelNum);
1934:Generated_Source\PSoC5/USB.c **** 
1935:Generated_Source\PSoC5/USB.c ****                 /* Generate DMA request. */
1936:Generated_Source\PSoC5/USB.c ****                 USB_ARB_EP_BASE.arbEp[epNumber].epCfg |=  (uint32)  USB_ARB_EPX_CFG_DMA_REQ;
1937:Generated_Source\PSoC5/USB.c ****                 USB_ARB_EP_BASE.arbEp[epNumber].epCfg &=  (uint32) ~USB_ARB_EPX_CFG_DMA_REQ;
ARM GAS  C:\Users\214016~1\AppData\Local\Temp\ccpUOjiz.s 			page 58


1938:Generated_Source\PSoC5/USB.c **** 
1939:Generated_Source\PSoC5/USB.c ****                 /* IN endpoint will be armed in ARB_ISR(source: IN_BUF_FULL) after first DMA transf
1940:Generated_Source\PSoC5/USB.c ****             }
1941:Generated_Source\PSoC5/USB.c ****             else
1942:Generated_Source\PSoC5/USB.c ****             {
1943:Generated_Source\PSoC5/USB.c ****                 /* When zero-length packet: arm IN endpoint directly. */
1944:Generated_Source\PSoC5/USB.c ****                 USB_SIE_EP_BASE.sieEp[epNumber].epCr0 = USB_EP[epNumber].epMode;
1945:Generated_Source\PSoC5/USB.c ****             }
1946:Generated_Source\PSoC5/USB.c ****         #endif /* (USB_EP_MANAGEMENT_DMA_MANUAL) */
1947:Generated_Source\PSoC5/USB.c **** 
1948:Generated_Source\PSoC5/USB.c ****         #if (USB_EP_MANAGEMENT_DMA_AUTO)
1949:Generated_Source\PSoC5/USB.c ****             if (pData != NULL)
1950:Generated_Source\PSoC5/USB.c ****             {
1951:Generated_Source\PSoC5/USB.c ****                 uint32 channelNum = (uint32) USB_DmaChan[epNumber];
1952:Generated_Source\PSoC5/USB.c **** 
1953:Generated_Source\PSoC5/USB.c ****                 /* Store address of buffer. */
1954:Generated_Source\PSoC5/USB.c ****                 USB_DmaEpBufferAddrBackup[epNumber] = (uint32) pData;
1955:Generated_Source\PSoC5/USB.c **** 
1956:Generated_Source\PSoC5/USB.c ****                 /* Disable DMA channel: start configuration. */
1957:Generated_Source\PSoC5/USB.c ****                 USB_CyDmaChDisable(channelNum);
1958:Generated_Source\PSoC5/USB.c **** 
1959:Generated_Source\PSoC5/USB.c ****                 /* Set destination address. */
1960:Generated_Source\PSoC5/USB.c ****                 USB_CyDmaSetDstAddress(channelNum, USB_DMA_DESCR0, (void*) &USB_ARB_EP16_BASE.arbEp
1961:Generated_Source\PSoC5/USB.c ****                 USB_CyDmaSetDstAddress(channelNum, USB_DMA_DESCR1, (void*) &USB_ARB_EP16_BASE.arbEp
1962:Generated_Source\PSoC5/USB.c **** 
1963:Generated_Source\PSoC5/USB.c ****                 /* Configure DMA descriptor. */
1964:Generated_Source\PSoC5/USB.c ****                 USB_CyDmaSetConfiguration(channelNum, USB_DMA_DESCR0, USB_DMA_COMMON_CFG  |
1965:Generated_Source\PSoC5/USB.c ****                                                         CYDMA_HALFWORD | CYDMA_ELEMENT_WORD | CYDMA
1966:Generated_Source\PSoC5/USB.c **** 
1967:Generated_Source\PSoC5/USB.c ****                 /* Configure DMA descriptor. */
1968:Generated_Source\PSoC5/USB.c ****                 USB_CyDmaSetConfiguration(channelNum, USB_DMA_DESCR1, USB_DMA_COMMON_CFG  |
1969:Generated_Source\PSoC5/USB.c ****                                                         CYDMA_HALFWORD | CYDMA_ELEMENT_WORD | CYDMA
1970:Generated_Source\PSoC5/USB.c **** 
1971:Generated_Source\PSoC5/USB.c ****                 /* Enable interrupt from DMA channel. */
1972:Generated_Source\PSoC5/USB.c ****                 USB_CyDmaSetInterruptMask(channelNum);
1973:Generated_Source\PSoC5/USB.c **** 
1974:Generated_Source\PSoC5/USB.c ****                 /* Enable DMA channel: configuration complete. */
1975:Generated_Source\PSoC5/USB.c ****                 USB_CyDmaChEnable(channelNum);
1976:Generated_Source\PSoC5/USB.c ****             }
1977:Generated_Source\PSoC5/USB.c ****             else
1978:Generated_Source\PSoC5/USB.c ****             {
1979:Generated_Source\PSoC5/USB.c ****                 /* IN endpoint buffer (32 bytes) will shortly be preloaded by DMA. */
1980:Generated_Source\PSoC5/USB.c ****                 USB_EP[epNumber].apiEpState = USB_NO_EVENT_PENDING;
1981:Generated_Source\PSoC5/USB.c **** 
1982:Generated_Source\PSoC5/USB.c ****                 if (length > 0u)
1983:Generated_Source\PSoC5/USB.c ****                 {
1984:Generated_Source\PSoC5/USB.c ****                     uint32 lengthDescr0, lengthDescr1;
1985:Generated_Source\PSoC5/USB.c ****                     uint32 channelNum = (uint32) USB_DmaChan[epNumber];
1986:Generated_Source\PSoC5/USB.c **** 
1987:Generated_Source\PSoC5/USB.c ****                     /* Get number of full bursts. */
1988:Generated_Source\PSoC5/USB.c ****                     USB_DmaEpBurstCnt[epNumber] = (uint8) (length / USB_DMA_BYTES_PER_BURST);
1989:Generated_Source\PSoC5/USB.c **** 
1990:Generated_Source\PSoC5/USB.c ****                     /* Get number of elements in the last burst. */
1991:Generated_Source\PSoC5/USB.c ****                     USB_DmaEpLastBurstEl[epNumber] = (uint8) (length % USB_DMA_BYTES_PER_BURST);
1992:Generated_Source\PSoC5/USB.c **** 
1993:Generated_Source\PSoC5/USB.c ****                     /* Get total number of bursts. */
1994:Generated_Source\PSoC5/USB.c ****                     USB_DmaEpBurstCnt[epNumber] += (0u != USB_DmaEpLastBurstEl[epNumber]) ? 1u : 0u
ARM GAS  C:\Users\214016~1\AppData\Local\Temp\ccpUOjiz.s 			page 59


1995:Generated_Source\PSoC5/USB.c **** 
1996:Generated_Source\PSoC5/USB.c ****                     /* Adjust number of data elements transferred in last burst. */
1997:Generated_Source\PSoC5/USB.c ****                     USB_DmaEpLastBurstEl[epNumber] = (0u != USB_DmaEpLastBurstEl[epNumber]) ?
1998:Generated_Source\PSoC5/USB.c ****                                                                           ((USB_DmaEpLastBurstEl[ep
1999:Generated_Source\PSoC5/USB.c ****                                                                            (USB_DMA_HALFWORDS_PER_B
2000:Generated_Source\PSoC5/USB.c **** 
2001:Generated_Source\PSoC5/USB.c ****                     /* Get number of data elements to transfer for descriptor 0 and 1. */
2002:Generated_Source\PSoC5/USB.c ****                     lengthDescr0 = (1u == USB_DmaEpBurstCnt[epNumber]) ? USB_DmaEpLastBurstEl[epNum
2003:Generated_Source\PSoC5/USB.c ****                     lengthDescr1 = (2u == USB_DmaEpBurstCnt[epNumber]) ? USB_DmaEpLastBurstEl[epNum
2004:Generated_Source\PSoC5/USB.c **** 
2005:Generated_Source\PSoC5/USB.c ****                     /* Mark which descriptor is last one to execute. */
2006:Generated_Source\PSoC5/USB.c ****                     USB_DmaEpLastBurstEl[epNumber] |= (0u != (USB_DmaEpBurstCnt[epNumber] & 0x1u)) 
2007:Generated_Source\PSoC5/USB.c ****                                                                             USB_DMA_DESCR0_MASK : U
2008:Generated_Source\PSoC5/USB.c **** 
2009:Generated_Source\PSoC5/USB.c ****                     /* Restore DMA settings for current transfer. */
2010:Generated_Source\PSoC5/USB.c ****                     USB_CyDmaChDisable(channelNum);
2011:Generated_Source\PSoC5/USB.c **** 
2012:Generated_Source\PSoC5/USB.c ****                     /* Restore destination address for input endpoint. */
2013:Generated_Source\PSoC5/USB.c ****                     USB_CyDmaSetSrcAddress(channelNum, USB_DMA_DESCR0, (void*) ((uint32) USB_DmaEpB
2014:Generated_Source\PSoC5/USB.c ****                     USB_CyDmaSetSrcAddress(channelNum, USB_DMA_DESCR1, (void*) ((uint32) USB_DmaEpB
2015:Generated_Source\PSoC5/USB.c ****                                                                                                    
2016:Generated_Source\PSoC5/USB.c **** 
2017:Generated_Source\PSoC5/USB.c ****                     /* Set number of elements to transfer. */
2018:Generated_Source\PSoC5/USB.c ****                     USB_CyDmaSetNumDataElements(channelNum, USB_DMA_DESCR0, lengthDescr0);
2019:Generated_Source\PSoC5/USB.c ****                     USB_CyDmaSetNumDataElements(channelNum, USB_DMA_DESCR1, lengthDescr1);
2020:Generated_Source\PSoC5/USB.c **** 
2021:Generated_Source\PSoC5/USB.c ****                     /* Validate descriptor 0 and command to start with it. */
2022:Generated_Source\PSoC5/USB.c ****                     USB_CyDmaValidateDescriptor(channelNum, USB_DMA_DESCR0);
2023:Generated_Source\PSoC5/USB.c ****                     USB_CyDmaSetDescriptor0Next(channelNum);
2024:Generated_Source\PSoC5/USB.c **** 
2025:Generated_Source\PSoC5/USB.c ****                     /* Validate descriptor 1. */
2026:Generated_Source\PSoC5/USB.c ****                     if (USB_DmaEpBurstCnt[epNumber] > 1u)
2027:Generated_Source\PSoC5/USB.c ****                     {
2028:Generated_Source\PSoC5/USB.c ****                         USB_CyDmaValidateDescriptor(channelNum, USB_DMA_DESCR1);
2029:Generated_Source\PSoC5/USB.c ****                     }
2030:Generated_Source\PSoC5/USB.c **** 
2031:Generated_Source\PSoC5/USB.c ****                     /* Adjust burst counter taking to account: 2 valid descriptors and interrupt tr
2032:Generated_Source\PSoC5/USB.c ****                     USB_DmaEpBurstCnt[epNumber] = USB_DMA_GET_BURST_CNT(USB_DmaEpBurstCnt[epNumber]
2033:Generated_Source\PSoC5/USB.c **** 
2034:Generated_Source\PSoC5/USB.c ****                     /* Enable DMA channel: configuration complete. */
2035:Generated_Source\PSoC5/USB.c ****                     USB_CyDmaChEnable(channelNum);
2036:Generated_Source\PSoC5/USB.c **** 
2037:Generated_Source\PSoC5/USB.c ****                 #if !defined (USB_MANUAL_IN_EP_ARM)
2038:Generated_Source\PSoC5/USB.c ****                     /* Set IN data ready to generate DMA request to load data into endpoint buffer.
2039:Generated_Source\PSoC5/USB.c ****                     USB_ARB_EP_BASE.arbEp[epNumber].epCfg |= USB_ARB_EPX_CFG_IN_DATA_RDY;
2040:Generated_Source\PSoC5/USB.c ****                 #endif  /* (USB_MANUAL_IN_EP_ARM) */
2041:Generated_Source\PSoC5/USB.c **** 
2042:Generated_Source\PSoC5/USB.c ****                     /* IN endpoint will be armed in ARB_ISR(source: IN_BUF_FULL) after first DMA tr
2043:Generated_Source\PSoC5/USB.c ****                 }
2044:Generated_Source\PSoC5/USB.c ****                 else
2045:Generated_Source\PSoC5/USB.c ****                 {
2046:Generated_Source\PSoC5/USB.c ****                     /* When zero-length packet: arm IN endpoint directly. */
2047:Generated_Source\PSoC5/USB.c ****                     USB_SIE_EP_BASE.sieEp[epNumber].epCr0 = USB_EP[epNumber].epMode;
2048:Generated_Source\PSoC5/USB.c ****                 }
2049:Generated_Source\PSoC5/USB.c ****             }
2050:Generated_Source\PSoC5/USB.c ****         #endif /* (USB_EP_MANAGEMENT_DMA_AUTO) */
2051:Generated_Source\PSoC5/USB.c ****     #endif /* (USB_EP_MANAGEMENT_MANUAL) */
ARM GAS  C:\Users\214016~1\AppData\Local\Temp\ccpUOjiz.s 			page 60


2052:Generated_Source\PSoC5/USB.c ****     }
2053:Generated_Source\PSoC5/USB.c **** }
2054:Generated_Source\PSoC5/USB.c **** 
2055:Generated_Source\PSoC5/USB.c **** 
2056:Generated_Source\PSoC5/USB.c **** /*******************************************************************************
2057:Generated_Source\PSoC5/USB.c **** * Function Name: USB_ReadOutEP16
2058:Generated_Source\PSoC5/USB.c **** ****************************************************************************//**
2059:Generated_Source\PSoC5/USB.c **** *
2060:Generated_Source\PSoC5/USB.c **** *   This function performs different functionality depending on the Component’s
2061:Generated_Source\PSoC5/USB.c **** *   configured Endpoint Buffer Management. This parameter is defined in the
2062:Generated_Source\PSoC5/USB.c **** *   Descriptor Root in Component Configure window.
2063:Generated_Source\PSoC5/USB.c **** *
2064:Generated_Source\PSoC5/USB.c **** *   *Manual (Static/Dynamic Allocation):*
2065:Generated_Source\PSoC5/USB.c **** *   This function moves the specified number of bytes from endpoint buffer to
2066:Generated_Source\PSoC5/USB.c **** *   system RAM. The number of bytes actually transferred from endpoint buffer to
2067:Generated_Source\PSoC5/USB.c **** *   system RAM is the lesser of the actual number of bytes sent by the host or
2068:Generated_Source\PSoC5/USB.c **** *   the number of bytes requested by the length parameter.
2069:Generated_Source\PSoC5/USB.c **** *
2070:Generated_Source\PSoC5/USB.c **** *   *DMA with Manual Buffer Management:*
2071:Generated_Source\PSoC5/USB.c **** *   Configure DMA to transfer data from endpoint buffer to system RAM. Generate
2072:Generated_Source\PSoC5/USB.c **** *   a DMA request. The firmware must wait until the DMA completes the data
2073:Generated_Source\PSoC5/USB.c **** *   transfer after calling the USB_ReadOutEP() API. For example,
2074:Generated_Source\PSoC5/USB.c **** *   by checking EPstate:
2075:Generated_Source\PSoC5/USB.c **** *
2076:Generated_Source\PSoC5/USB.c **** *   \snippet /USBFS_sut_02.cydsn/main.c checking EPstatey
2077:Generated_Source\PSoC5/USB.c **** *
2078:Generated_Source\PSoC5/USB.c **** *   The USBFS_EnableOutEP() has to be called to allow host to write data into
2079:Generated_Source\PSoC5/USB.c **** *   the endpoint buffer after DMA has completed transfer data from OUT endpoint
2080:Generated_Source\PSoC5/USB.c **** *   buffer to SRAM.
2081:Generated_Source\PSoC5/USB.c **** *
2082:Generated_Source\PSoC5/USB.c **** *   *DMA with Automatic Buffer Management:*
2083:Generated_Source\PSoC5/USB.c **** *   Configure DMA. This is required only once and automatically generates DMA
2084:Generated_Source\PSoC5/USB.c **** *   requests as data arrives
2085:Generated_Source\PSoC5/USB.c **** *
2086:Generated_Source\PSoC5/USB.c **** *  \param epNumber: Contains the data endpoint number.
2087:Generated_Source\PSoC5/USB.c **** *         Valid values are between 1 and 8.
2088:Generated_Source\PSoC5/USB.c **** *  \param pData: A pointer to a data array into which the data for the endpoint
2089:Generated_Source\PSoC5/USB.c **** *         space is copied. It shall be ensured that this pointer address is
2090:Generated_Source\PSoC5/USB.c **** *         even to ensure the 16-bit transfer is aligned to even address. Else,
2091:Generated_Source\PSoC5/USB.c **** *         a hard fault condition can occur.
2092:Generated_Source\PSoC5/USB.c **** *  \param length: The number of bytes to transfer from the USB Out endpoint and
2093:Generated_Source\PSoC5/USB.c **** *         loads it into data array. Valid values are between 0 and 1023. The
2094:Generated_Source\PSoC5/USB.c **** *         function moves fewer than the requested number of bytes if the host
2095:Generated_Source\PSoC5/USB.c **** *         sends fewer bytes than requested.
2096:Generated_Source\PSoC5/USB.c **** *
2097:Generated_Source\PSoC5/USB.c **** * \return
2098:Generated_Source\PSoC5/USB.c **** *  Number of bytes received, 0 for an invalid endpoint.
2099:Generated_Source\PSoC5/USB.c **** *
2100:Generated_Source\PSoC5/USB.c **** * \reentrant
2101:Generated_Source\PSoC5/USB.c **** *  No.
2102:Generated_Source\PSoC5/USB.c **** *
2103:Generated_Source\PSoC5/USB.c **** *******************************************************************************/
2104:Generated_Source\PSoC5/USB.c **** uint16 USB_ReadOutEP16(uint8 epNumber, uint8 pData[], uint16 length)
2105:Generated_Source\PSoC5/USB.c **** {
2106:Generated_Source\PSoC5/USB.c ****     uint32 adjLength;
2107:Generated_Source\PSoC5/USB.c **** 
2108:Generated_Source\PSoC5/USB.c ****     /* Check array alignment on half-word boundary */
ARM GAS  C:\Users\214016~1\AppData\Local\Temp\ccpUOjiz.s 			page 61


2109:Generated_Source\PSoC5/USB.c ****     CYASSERT(0u == (((uint32) pData) & 0x01u));
2110:Generated_Source\PSoC5/USB.c **** 
2111:Generated_Source\PSoC5/USB.c ****     if ((pData != NULL) && (epNumber > USB_EP0) && (epNumber < USB_MAX_EP))
2112:Generated_Source\PSoC5/USB.c ****     {
2113:Generated_Source\PSoC5/USB.c ****     #if (!USB_EP_MANAGEMENT_DMA_AUTO)
2114:Generated_Source\PSoC5/USB.c ****         /* Adjust requested length to available data. */
2115:Generated_Source\PSoC5/USB.c ****         length = (length > USB_GetEPCount(epNumber)) ? USB_GetEPCount(epNumber) : length;
2116:Generated_Source\PSoC5/USB.c ****     #endif /* (!USB_EP_MANAGEMENT_DMA_AUTO) */
2117:Generated_Source\PSoC5/USB.c **** 
2118:Generated_Source\PSoC5/USB.c ****     /* Adjust requested length: 2 bytes are handled at one data register access. */
2119:Generated_Source\PSoC5/USB.c ****     adjLength =  length + ((uint32)length & 1u);
2120:Generated_Source\PSoC5/USB.c **** 
2121:Generated_Source\PSoC5/USB.c ****     #if (USB_EP_MANAGEMENT_MANUAL)
2122:Generated_Source\PSoC5/USB.c ****         {
2123:Generated_Source\PSoC5/USB.c ****             /* Convert uint8 array to uint16. */
2124:Generated_Source\PSoC5/USB.c ****             uint16 *dataBuf = (uint16 *) pData;
2125:Generated_Source\PSoC5/USB.c **** 
2126:Generated_Source\PSoC5/USB.c ****             /* Copy data using 16-bits arbiter data register. */
2127:Generated_Source\PSoC5/USB.c ****             uint16 i;
2128:Generated_Source\PSoC5/USB.c ****             for (i = 0u; i < (adjLength >> 1u); ++i)
2129:Generated_Source\PSoC5/USB.c ****             {
2130:Generated_Source\PSoC5/USB.c ****                 dataBuf[i] = (uint16) USB_ARB_EP16_BASE.arbEp[epNumber].rwDr16;
2131:Generated_Source\PSoC5/USB.c ****             }
2132:Generated_Source\PSoC5/USB.c ****         }
2133:Generated_Source\PSoC5/USB.c **** 
2134:Generated_Source\PSoC5/USB.c ****         /* Arm OUT endpoint after data has been read from endpoint buffer. */
2135:Generated_Source\PSoC5/USB.c ****         USB_EnableOutEP(epNumber);
2136:Generated_Source\PSoC5/USB.c ****     #else
2137:Generated_Source\PSoC5/USB.c **** 
2138:Generated_Source\PSoC5/USB.c ****         #if (USB_EP_MANAGEMENT_DMA_MANUAL)
2139:Generated_Source\PSoC5/USB.c ****         {
2140:Generated_Source\PSoC5/USB.c ****             uint32 channelNum = (uint32) USB_DmaChan[epNumber];
2141:Generated_Source\PSoC5/USB.c **** 
2142:Generated_Source\PSoC5/USB.c ****             /* Disable DMA channel: start configuration. */
2143:Generated_Source\PSoC5/USB.c ****             USB_CyDmaChDisable(channelNum);
2144:Generated_Source\PSoC5/USB.c **** 
2145:Generated_Source\PSoC5/USB.c ****             /* Configure source and destination. */
2146:Generated_Source\PSoC5/USB.c ****             USB_CyDmaSetSrcAddress(channelNum, USB_DMA_DESCR0, (void*) &USB_ARB_EP16_BASE.arbEp[epN
2147:Generated_Source\PSoC5/USB.c ****             USB_CyDmaSetDstAddress(channelNum, USB_DMA_DESCR0, (void*) pData);
2148:Generated_Source\PSoC5/USB.c **** 
2149:Generated_Source\PSoC5/USB.c ****             /* Configure DMA descriptor. */
2150:Generated_Source\PSoC5/USB.c ****             USB_CyDmaSetConfiguration(channelNum, USB_DMA_DESCR0, USB_DMA_COMMON_CFG | (uint16)((ad
2151:Generated_Source\PSoC5/USB.c ****                                                     CYDMA_HALFWORD | CYDMA_WORD_ELEMENT | CYDMA_INC
2152:Generated_Source\PSoC5/USB.c **** 
2153:Generated_Source\PSoC5/USB.c ****             /* Validate descriptor to execute on following DMA request. */
2154:Generated_Source\PSoC5/USB.c ****             USB_CyDmaValidateDescriptor(channelNum, USB_DMA_DESCR0);
2155:Generated_Source\PSoC5/USB.c **** 
2156:Generated_Source\PSoC5/USB.c ****             /* Enable DMA channel: configuration complete. */
2157:Generated_Source\PSoC5/USB.c ****             USB_CyDmaChEnable(channelNum);
2158:Generated_Source\PSoC5/USB.c **** 
2159:Generated_Source\PSoC5/USB.c ****             /* Generate DMA request. */
2160:Generated_Source\PSoC5/USB.c ****             USB_ARB_EP_BASE.arbEp[epNumber].epCfg |=  (uint32)  USB_ARB_EPX_CFG_DMA_REQ;
2161:Generated_Source\PSoC5/USB.c ****             USB_ARB_EP_BASE.arbEp[epNumber].epCfg &=  (uint32) ~USB_ARB_EPX_CFG_DMA_REQ;
2162:Generated_Source\PSoC5/USB.c **** 
2163:Generated_Source\PSoC5/USB.c ****             /* OUT endpoint has to be armed again by user when DMA transfers have been completed.
2164:Generated_Source\PSoC5/USB.c ****             * NO_EVENT_PENDING: notifies that data has been copied from endpoint buffer.
2165:Generated_Source\PSoC5/USB.c ****             */
ARM GAS  C:\Users\214016~1\AppData\Local\Temp\ccpUOjiz.s 			page 62


2166:Generated_Source\PSoC5/USB.c ****         }
2167:Generated_Source\PSoC5/USB.c ****         #endif /* (USB_EP_MANAGEMENT_DMA_MANUAL) */
2168:Generated_Source\PSoC5/USB.c **** 
2169:Generated_Source\PSoC5/USB.c ****         #if (USB_EP_MANAGEMENT_DMA_AUTO)
2170:Generated_Source\PSoC5/USB.c ****         {
2171:Generated_Source\PSoC5/USB.c ****             uint32 lengthDescr0, lengthDescr1;
2172:Generated_Source\PSoC5/USB.c ****             uint32 channelNum = (uint32) USB_DmaChan[epNumber];
2173:Generated_Source\PSoC5/USB.c **** 
2174:Generated_Source\PSoC5/USB.c ****             /* Get number of full bursts. */
2175:Generated_Source\PSoC5/USB.c ****             USB_DmaEpBurstCnt[epNumber] = (uint8) (adjLength / USB_DMA_BYTES_PER_BURST);
2176:Generated_Source\PSoC5/USB.c **** 
2177:Generated_Source\PSoC5/USB.c ****             /* Get number of elements in last burst. */
2178:Generated_Source\PSoC5/USB.c ****             USB_DmaEpLastBurstEl[epNumber] = (uint8) (adjLength % USB_DMA_BYTES_PER_BURST);
2179:Generated_Source\PSoC5/USB.c **** 
2180:Generated_Source\PSoC5/USB.c ****             /* Get total number of bursts. */
2181:Generated_Source\PSoC5/USB.c ****             USB_DmaEpBurstCnt[epNumber] += (0u != USB_DmaEpLastBurstEl[epNumber]) ? 1u : 0u;
2182:Generated_Source\PSoC5/USB.c **** 
2183:Generated_Source\PSoC5/USB.c ****             /* Adjust number of data elements transferred in last burst. */
2184:Generated_Source\PSoC5/USB.c ****             USB_DmaEpLastBurstEl[epNumber] = (0u != USB_DmaEpLastBurstEl[epNumber]) ?
2185:Generated_Source\PSoC5/USB.c ****                                                                   ((USB_DmaEpLastBurstEl[epNumber] 
2186:Generated_Source\PSoC5/USB.c ****                                                                    (USB_DMA_HALFWORDS_PER_BURST - 1
2187:Generated_Source\PSoC5/USB.c **** 
2188:Generated_Source\PSoC5/USB.c ****             /* Get number of data elements to transfer for descriptor 0 and 1. */
2189:Generated_Source\PSoC5/USB.c ****             lengthDescr0 = (1u == USB_DmaEpBurstCnt[epNumber]) ? USB_DmaEpLastBurstEl[epNumber] : (
2190:Generated_Source\PSoC5/USB.c ****             lengthDescr1 = (2u == USB_DmaEpBurstCnt[epNumber]) ? USB_DmaEpLastBurstEl[epNumber] : (
2191:Generated_Source\PSoC5/USB.c **** 
2192:Generated_Source\PSoC5/USB.c ****             /* Mark last descriptor to be executed. */
2193:Generated_Source\PSoC5/USB.c ****             USB_DmaEpLastBurstEl[epNumber] |= (0u != (USB_DmaEpBurstCnt[epNumber] & 0x1u)) ?
2194:Generated_Source\PSoC5/USB.c ****                                                                     USB_DMA_DESCR0_MASK : USB_DMA_D
2195:Generated_Source\PSoC5/USB.c **** 
2196:Generated_Source\PSoC5/USB.c ****             /* Mark if revert number of data elements in descriptor after transfer completion. */
2197:Generated_Source\PSoC5/USB.c ****             USB_DmaEpLastBurstEl[epNumber] |= (USB_DmaEpBurstCnt[epNumber] > 2u) ? USB_DMA_DESCR_RE
2198:Generated_Source\PSoC5/USB.c **** 
2199:Generated_Source\PSoC5/USB.c ****             /* Mark that 16-bits access to data register is performed. */
2200:Generated_Source\PSoC5/USB.c ****             USB_DmaEpLastBurstEl[epNumber] |= USB_DMA_DESCR_16BITS;
2201:Generated_Source\PSoC5/USB.c **** 
2202:Generated_Source\PSoC5/USB.c ****             /* Store address of buffer and burst counter for endpoint. */
2203:Generated_Source\PSoC5/USB.c ****             USB_DmaEpBufferAddrBackup[epNumber] = (uint32) pData;
2204:Generated_Source\PSoC5/USB.c ****             USB_DmaEpBurstCntBackup[epNumber]   = USB_DmaEpBurstCnt[epNumber];
2205:Generated_Source\PSoC5/USB.c **** 
2206:Generated_Source\PSoC5/USB.c ****             /* Adjust burst counter taking to account: 2 valid descriptors and interrupt trigger af
2207:Generated_Source\PSoC5/USB.c ****             USB_DmaEpBurstCnt[epNumber] = USB_DMA_GET_BURST_CNT(USB_DmaEpBurstCnt[epNumber]);
2208:Generated_Source\PSoC5/USB.c **** 
2209:Generated_Source\PSoC5/USB.c ****             /* Disable DMA channel: start configuration. */
2210:Generated_Source\PSoC5/USB.c ****             USB_CyDmaChDisable(channelNum);
2211:Generated_Source\PSoC5/USB.c **** 
2212:Generated_Source\PSoC5/USB.c ****             /* Set destination address. */
2213:Generated_Source\PSoC5/USB.c ****             USB_CyDmaSetSrcAddress(channelNum, USB_DMA_DESCR0, (void*) &USB_ARB_EP16_BASE.arbEp[epN
2214:Generated_Source\PSoC5/USB.c ****             USB_CyDmaSetSrcAddress(channelNum, USB_DMA_DESCR1, (void*) &USB_ARB_EP16_BASE.arbEp[epN
2215:Generated_Source\PSoC5/USB.c **** 
2216:Generated_Source\PSoC5/USB.c ****             USB_CyDmaSetDstAddress(channelNum, USB_DMA_DESCR0, (void*) ((uint32) pData));
2217:Generated_Source\PSoC5/USB.c ****             USB_CyDmaSetDstAddress(channelNum, USB_DMA_DESCR1, (void*) ((uint32) pData + USB_DMA_BY
2218:Generated_Source\PSoC5/USB.c **** 
2219:Generated_Source\PSoC5/USB.c ****             /* Configure DMA descriptor 0. */
2220:Generated_Source\PSoC5/USB.c ****             USB_CyDmaSetConfiguration(channelNum, USB_DMA_DESCR0, USB_DMA_COMMON_CFG  | lengthDescr
2221:Generated_Source\PSoC5/USB.c ****                                                     CYDMA_HALFWORD | CYDMA_WORD_ELEMENT | CYDMA_INC
2222:Generated_Source\PSoC5/USB.c **** 
ARM GAS  C:\Users\214016~1\AppData\Local\Temp\ccpUOjiz.s 			page 63


2223:Generated_Source\PSoC5/USB.c ****             /* Configure DMA descriptor 1. */
2224:Generated_Source\PSoC5/USB.c ****             USB_CyDmaSetConfiguration(channelNum, USB_DMA_DESCR1, USB_DMA_COMMON_CFG  | lengthDescr
2225:Generated_Source\PSoC5/USB.c ****                                                     CYDMA_HALFWORD | CYDMA_WORD_ELEMENT | CYDMA_INC
2226:Generated_Source\PSoC5/USB.c **** 
2227:Generated_Source\PSoC5/USB.c ****             /* Enable interrupt from DMA channel. */
2228:Generated_Source\PSoC5/USB.c ****             USB_CyDmaSetInterruptMask(channelNum);
2229:Generated_Source\PSoC5/USB.c **** 
2230:Generated_Source\PSoC5/USB.c ****             /* Validate DMA descriptor 0 and 1. */
2231:Generated_Source\PSoC5/USB.c ****             USB_CyDmaValidateDescriptor(channelNum, USB_DMA_DESCR0);
2232:Generated_Source\PSoC5/USB.c ****             
2233:Generated_Source\PSoC5/USB.c ****             if (USB_DmaEpBurstCntBackup[epNumber] > 1u)
2234:Generated_Source\PSoC5/USB.c ****             {
2235:Generated_Source\PSoC5/USB.c ****                 USB_CyDmaValidateDescriptor(channelNum, USB_DMA_DESCR1);
2236:Generated_Source\PSoC5/USB.c ****             }
2237:Generated_Source\PSoC5/USB.c **** 
2238:Generated_Source\PSoC5/USB.c ****             /* Enable DMA channel: configuration complete. */
2239:Generated_Source\PSoC5/USB.c ****             USB_CyDmaChEnable(channelNum);
2240:Generated_Source\PSoC5/USB.c **** 
2241:Generated_Source\PSoC5/USB.c ****             /* OUT endpoint has to be armed again by user when DMA transfers have been completed.
2242:Generated_Source\PSoC5/USB.c ****             * NO_EVENT_PENDING: notifies that data has been copied from endpoint buffer.
2243:Generated_Source\PSoC5/USB.c ****             */
2244:Generated_Source\PSoC5/USB.c ****         }
2245:Generated_Source\PSoC5/USB.c ****         #endif /* (USB_EP_MANAGEMENT_DMA_AUTO) */
2246:Generated_Source\PSoC5/USB.c ****     #endif /* (USB_EP_MANAGEMENT_MANUAL) */
2247:Generated_Source\PSoC5/USB.c ****     }
2248:Generated_Source\PSoC5/USB.c ****     else
2249:Generated_Source\PSoC5/USB.c ****     {
2250:Generated_Source\PSoC5/USB.c ****         length = 0u;
2251:Generated_Source\PSoC5/USB.c ****     }
2252:Generated_Source\PSoC5/USB.c **** 
2253:Generated_Source\PSoC5/USB.c ****     return (length);
2254:Generated_Source\PSoC5/USB.c **** }
2255:Generated_Source\PSoC5/USB.c **** #endif /* (USB_16BITS_EP_ACCESS_ENABLE) */
2256:Generated_Source\PSoC5/USB.c **** 
2257:Generated_Source\PSoC5/USB.c **** 
2258:Generated_Source\PSoC5/USB.c **** /*******************************************************************************
2259:Generated_Source\PSoC5/USB.c **** * Function Name: USB_EnableOutEP
2260:Generated_Source\PSoC5/USB.c **** ****************************************************************************//**
2261:Generated_Source\PSoC5/USB.c **** *
2262:Generated_Source\PSoC5/USB.c **** *  This function enables the specified endpoint for OUT transfers. Do not call
2263:Generated_Source\PSoC5/USB.c **** *  this function for IN endpoints.
2264:Generated_Source\PSoC5/USB.c **** *
2265:Generated_Source\PSoC5/USB.c **** *  \param epNumber: Contains the data endpoint number. Valid values are between
2266:Generated_Source\PSoC5/USB.c **** *  1 and 8.
2267:Generated_Source\PSoC5/USB.c **** *
2268:Generated_Source\PSoC5/USB.c **** * \globalvars
2269:Generated_Source\PSoC5/USB.c **** *
2270:Generated_Source\PSoC5/USB.c **** *  \ref USB_EP[epNumber].apiEpState - set to NO_EVENT_PENDING
2271:Generated_Source\PSoC5/USB.c **** *
2272:Generated_Source\PSoC5/USB.c **** * \reentrant
2273:Generated_Source\PSoC5/USB.c **** *  No.
2274:Generated_Source\PSoC5/USB.c **** *
2275:Generated_Source\PSoC5/USB.c **** *******************************************************************************/
2276:Generated_Source\PSoC5/USB.c **** void USB_EnableOutEP(uint8 epNumber) 
2277:Generated_Source\PSoC5/USB.c **** {
 1309              		.loc 1 2277 0
 1310              		.cfi_startproc
ARM GAS  C:\Users\214016~1\AppData\Local\Temp\ccpUOjiz.s 			page 64


 1311              		@ args = 0, pretend = 0, frame = 8
 1312              		@ frame_needed = 1, uses_anonymous_args = 0
 1313              		@ link register save eliminated.
 1314 0000 90B4     		push	{r4, r7}
 1315              		.cfi_def_cfa_offset 8
 1316              		.cfi_offset 4, -8
 1317              		.cfi_offset 7, -4
 1318 0002 82B0     		sub	sp, sp, #8
 1319              		.cfi_def_cfa_offset 16
 1320 0004 00AF     		add	r7, sp, #0
 1321              		.cfi_def_cfa_register 7
 1322 0006 0346     		mov	r3, r0
 1323 0008 FB71     		strb	r3, [r7, #7]
2278:Generated_Source\PSoC5/USB.c ****     if ((epNumber > USB_EP0) && (epNumber < USB_MAX_EP))
 1324              		.loc 1 2278 0
 1325 000a FB79     		ldrb	r3, [r7, #7]	@ zero_extendqisi2
 1326 000c 002B     		cmp	r3, #0
 1327 000e 19D0     		beq	.L68
 1328              		.loc 1 2278 0 is_stmt 0 discriminator 1
 1329 0010 FB79     		ldrb	r3, [r7, #7]	@ zero_extendqisi2
 1330 0012 082B     		cmp	r3, #8
 1331 0014 16D8     		bhi	.L68
2279:Generated_Source\PSoC5/USB.c ****     {
2280:Generated_Source\PSoC5/USB.c ****         USB_EP[epNumber].apiEpState = USB_NO_EVENT_PENDING;
 1332              		.loc 1 2280 0 is_stmt 1
 1333 0016 FA79     		ldrb	r2, [r7, #7]	@ zero_extendqisi2
 1334 0018 0C49     		ldr	r1, .L70
 1335 001a 1346     		mov	r3, r2
 1336 001c 5B00     		lsls	r3, r3, #1
 1337 001e 1344     		add	r3, r3, r2
 1338 0020 9B00     		lsls	r3, r3, #2
 1339 0022 0B44     		add	r3, r3, r1
 1340 0024 0022     		movs	r2, #0
 1341 0026 5A70     		strb	r2, [r3, #1]
2281:Generated_Source\PSoC5/USB.c **** 
2282:Generated_Source\PSoC5/USB.c ****         /* Enable OUT endpoint to be written by Host. */
2283:Generated_Source\PSoC5/USB.c ****         USB_SIE_EP_BASE.sieEp[epNumber].epCr0 = USB_EP[epNumber].epMode;
 1342              		.loc 1 2283 0
 1343 0028 0948     		ldr	r0, .L70+4
 1344 002a F979     		ldrb	r1, [r7, #7]	@ zero_extendqisi2
 1345 002c FA79     		ldrb	r2, [r7, #7]	@ zero_extendqisi2
 1346 002e 074C     		ldr	r4, .L70
 1347 0030 1346     		mov	r3, r2
 1348 0032 5B00     		lsls	r3, r3, #1
 1349 0034 1344     		add	r3, r3, r2
 1350 0036 9B00     		lsls	r3, r3, #2
 1351 0038 2344     		add	r3, r3, r4
 1352 003a 5B79     		ldrb	r3, [r3, #5]
 1353 003c DAB2     		uxtb	r2, r3
 1354 003e 0B01     		lsls	r3, r1, #4
 1355 0040 0344     		add	r3, r3, r0
 1356 0042 9A70     		strb	r2, [r3, #2]
 1357              	.L68:
2284:Generated_Source\PSoC5/USB.c ****         
2285:Generated_Source\PSoC5/USB.c ****     }
2286:Generated_Source\PSoC5/USB.c **** }
 1358              		.loc 1 2286 0
ARM GAS  C:\Users\214016~1\AppData\Local\Temp\ccpUOjiz.s 			page 65


 1359 0044 0837     		adds	r7, r7, #8
 1360              		.cfi_def_cfa_offset 8
 1361 0046 BD46     		mov	sp, r7
 1362              		.cfi_def_cfa_register 13
 1363              		@ sp needed
 1364 0048 90BC     		pop	{r4, r7}
 1365              		.cfi_restore 7
 1366              		.cfi_restore 4
 1367              		.cfi_def_cfa_offset 0
 1368 004a 7047     		bx	lr
 1369              	.L71:
 1370              		.align	2
 1371              	.L70:
 1372 004c 00000000 		.word	USB_EP
 1373 0050 FC5F0040 		.word	1073766396
 1374              		.cfi_endproc
 1375              	.LFE13:
 1376              		.size	USB_EnableOutEP, .-USB_EnableOutEP
 1377              		.section	.text.USB_DisableOutEP,"ax",%progbits
 1378              		.align	2
 1379              		.global	USB_DisableOutEP
 1380              		.thumb
 1381              		.thumb_func
 1382              		.type	USB_DisableOutEP, %function
 1383              	USB_DisableOutEP:
 1384              	.LFB14:
2287:Generated_Source\PSoC5/USB.c **** 
2288:Generated_Source\PSoC5/USB.c **** 
2289:Generated_Source\PSoC5/USB.c **** /*******************************************************************************
2290:Generated_Source\PSoC5/USB.c **** * Function Name: USB_DisableOutEP
2291:Generated_Source\PSoC5/USB.c **** ****************************************************************************//**
2292:Generated_Source\PSoC5/USB.c **** *
2293:Generated_Source\PSoC5/USB.c **** *  This function disables the specified USBFS OUT endpoint. Do not call this
2294:Generated_Source\PSoC5/USB.c **** *  function for IN endpoints.
2295:Generated_Source\PSoC5/USB.c **** *
2296:Generated_Source\PSoC5/USB.c **** *  \param epNumber: Contains the data endpoint number.
2297:Generated_Source\PSoC5/USB.c **** *            Valid values are between 1 and 8.
2298:Generated_Source\PSoC5/USB.c **** *
2299:Generated_Source\PSoC5/USB.c **** *******************************************************************************/
2300:Generated_Source\PSoC5/USB.c **** void USB_DisableOutEP(uint8 epNumber) 
2301:Generated_Source\PSoC5/USB.c **** {
 1385              		.loc 1 2301 0
 1386              		.cfi_startproc
 1387              		@ args = 0, pretend = 0, frame = 8
 1388              		@ frame_needed = 1, uses_anonymous_args = 0
 1389              		@ link register save eliminated.
 1390 0000 80B4     		push	{r7}
 1391              		.cfi_def_cfa_offset 4
 1392              		.cfi_offset 7, -4
 1393 0002 83B0     		sub	sp, sp, #12
 1394              		.cfi_def_cfa_offset 16
 1395 0004 00AF     		add	r7, sp, #0
 1396              		.cfi_def_cfa_register 7
 1397 0006 0346     		mov	r3, r0
 1398 0008 FB71     		strb	r3, [r7, #7]
2302:Generated_Source\PSoC5/USB.c ****     if ((epNumber > USB_EP0) && (epNumber < USB_MAX_EP))
 1399              		.loc 1 2302 0
ARM GAS  C:\Users\214016~1\AppData\Local\Temp\ccpUOjiz.s 			page 66


 1400 000a FB79     		ldrb	r3, [r7, #7]	@ zero_extendqisi2
 1401 000c 002B     		cmp	r3, #0
 1402 000e 08D0     		beq	.L72
 1403              		.loc 1 2302 0 is_stmt 0 discriminator 1
 1404 0010 FB79     		ldrb	r3, [r7, #7]	@ zero_extendqisi2
 1405 0012 082B     		cmp	r3, #8
 1406 0014 05D8     		bhi	.L72
2303:Generated_Source\PSoC5/USB.c ****     {
2304:Generated_Source\PSoC5/USB.c ****         /* Set NAK response for OUT endpoint. */
2305:Generated_Source\PSoC5/USB.c ****         USB_SIE_EP_BASE.sieEp[epNumber].epCr0 = USB_MODE_NAK_OUT;
 1407              		.loc 1 2305 0 is_stmt 1
 1408 0016 054A     		ldr	r2, .L74
 1409 0018 FB79     		ldrb	r3, [r7, #7]	@ zero_extendqisi2
 1410 001a 1B01     		lsls	r3, r3, #4
 1411 001c 1344     		add	r3, r3, r2
 1412 001e 0822     		movs	r2, #8
 1413 0020 9A70     		strb	r2, [r3, #2]
 1414              	.L72:
2306:Generated_Source\PSoC5/USB.c ****     }
2307:Generated_Source\PSoC5/USB.c **** }
 1415              		.loc 1 2307 0
 1416 0022 0C37     		adds	r7, r7, #12
 1417              		.cfi_def_cfa_offset 4
 1418 0024 BD46     		mov	sp, r7
 1419              		.cfi_def_cfa_register 13
 1420              		@ sp needed
 1421 0026 5DF8047B 		ldr	r7, [sp], #4
 1422              		.cfi_restore 7
 1423              		.cfi_def_cfa_offset 0
 1424 002a 7047     		bx	lr
 1425              	.L75:
 1426              		.align	2
 1427              	.L74:
 1428 002c FC5F0040 		.word	1073766396
 1429              		.cfi_endproc
 1430              	.LFE14:
 1431              		.size	USB_DisableOutEP, .-USB_DisableOutEP
 1432              		.section	.text.USB_Force,"ax",%progbits
 1433              		.align	2
 1434              		.global	USB_Force
 1435              		.thumb
 1436              		.thumb_func
 1437              		.type	USB_Force, %function
 1438              	USB_Force:
 1439              	.LFB15:
2308:Generated_Source\PSoC5/USB.c **** 
2309:Generated_Source\PSoC5/USB.c **** 
2310:Generated_Source\PSoC5/USB.c **** /*******************************************************************************
2311:Generated_Source\PSoC5/USB.c **** * Function Name: USB_Force
2312:Generated_Source\PSoC5/USB.c **** ****************************************************************************//**
2313:Generated_Source\PSoC5/USB.c **** *
2314:Generated_Source\PSoC5/USB.c **** *  This function forces a USB J, K, or SE0 state on the D+/D– lines. It provides
2315:Generated_Source\PSoC5/USB.c **** *  the necessary mechanism for a USB device application to perform a USB Remote
2316:Generated_Source\PSoC5/USB.c **** *  Wakeup. For more information, see the USB 2.0 Specification for details on
2317:Generated_Source\PSoC5/USB.c **** *  Suspend and Resume.
2318:Generated_Source\PSoC5/USB.c **** *
2319:Generated_Source\PSoC5/USB.c **** *  \param state A byte indicating which of the four bus states to enable.
ARM GAS  C:\Users\214016~1\AppData\Local\Temp\ccpUOjiz.s 			page 67


2320:Generated_Source\PSoC5/USB.c **** *        Symbolic names  and their associated values are listed here:
2321:Generated_Source\PSoC5/USB.c **** *    State                      |Description
2322:Generated_Source\PSoC5/USB.c **** *    ---------------------------|----------------------------------------------
2323:Generated_Source\PSoC5/USB.c **** *    USB_FORCE_J   | Force a J State onto the D+/D– lines
2324:Generated_Source\PSoC5/USB.c **** *    USB_FORCE_K   | Force a K State onto the D+/D– lines
2325:Generated_Source\PSoC5/USB.c **** *    USB_FORCE_SE0 | Force a Single Ended 0 onto the D+/D– lines
2326:Generated_Source\PSoC5/USB.c **** *    USB_FORCE_NONE| Return bus to SIE control
2327:Generated_Source\PSoC5/USB.c **** *
2328:Generated_Source\PSoC5/USB.c **** *
2329:Generated_Source\PSoC5/USB.c **** *******************************************************************************/
2330:Generated_Source\PSoC5/USB.c **** void USB_Force(uint8 bState) 
2331:Generated_Source\PSoC5/USB.c **** {
 1440              		.loc 1 2331 0
 1441              		.cfi_startproc
 1442              		@ args = 0, pretend = 0, frame = 8
 1443              		@ frame_needed = 1, uses_anonymous_args = 0
 1444              		@ link register save eliminated.
 1445 0000 80B4     		push	{r7}
 1446              		.cfi_def_cfa_offset 4
 1447              		.cfi_offset 7, -4
 1448 0002 83B0     		sub	sp, sp, #12
 1449              		.cfi_def_cfa_offset 16
 1450 0004 00AF     		add	r7, sp, #0
 1451              		.cfi_def_cfa_register 7
 1452 0006 0346     		mov	r3, r0
 1453 0008 FB71     		strb	r3, [r7, #7]
2332:Generated_Source\PSoC5/USB.c ****     /* This registers is used only for manual control of SIE (no masking is
2333:Generated_Source\PSoC5/USB.c ****     * needed before write into it).
2334:Generated_Source\PSoC5/USB.c ****     */
2335:Generated_Source\PSoC5/USB.c ****     USB_USBIO_CR0_REG = bState;
 1454              		.loc 1 2335 0
 1455 000a 044A     		ldr	r2, .L77
 1456 000c FB79     		ldrb	r3, [r7, #7]
 1457 000e 1370     		strb	r3, [r2]
2336:Generated_Source\PSoC5/USB.c **** }
 1458              		.loc 1 2336 0
 1459 0010 0C37     		adds	r7, r7, #12
 1460              		.cfi_def_cfa_offset 4
 1461 0012 BD46     		mov	sp, r7
 1462              		.cfi_def_cfa_register 13
 1463              		@ sp needed
 1464 0014 5DF8047B 		ldr	r7, [sp], #4
 1465              		.cfi_restore 7
 1466              		.cfi_def_cfa_offset 0
 1467 0018 7047     		bx	lr
 1468              	.L78:
 1469 001a 00BF     		.align	2
 1470              	.L77:
 1471 001c 10600040 		.word	1073766416
 1472              		.cfi_endproc
 1473              	.LFE15:
 1474              		.size	USB_Force, .-USB_Force
 1475              		.section	.text.USB_GetEPAckState,"ax",%progbits
 1476              		.align	2
 1477              		.global	USB_GetEPAckState
 1478              		.thumb
 1479              		.thumb_func
ARM GAS  C:\Users\214016~1\AppData\Local\Temp\ccpUOjiz.s 			page 68


 1480              		.type	USB_GetEPAckState, %function
 1481              	USB_GetEPAckState:
 1482              	.LFB16:
2337:Generated_Source\PSoC5/USB.c **** 
2338:Generated_Source\PSoC5/USB.c **** 
2339:Generated_Source\PSoC5/USB.c **** /*******************************************************************************
2340:Generated_Source\PSoC5/USB.c **** * Function Name: USB_GetEPAckState
2341:Generated_Source\PSoC5/USB.c **** ****************************************************************************//**
2342:Generated_Source\PSoC5/USB.c **** *
2343:Generated_Source\PSoC5/USB.c **** *  This function determines whether an ACK transaction occurred on this endpoint
2344:Generated_Source\PSoC5/USB.c **** *  by reading the ACK bit in the control register of the endpoint. It does not
2345:Generated_Source\PSoC5/USB.c **** *  clear the ACK bit.
2346:Generated_Source\PSoC5/USB.c **** *
2347:Generated_Source\PSoC5/USB.c **** *  \param epNumber Contains the data endpoint number.
2348:Generated_Source\PSoC5/USB.c **** *            Valid values are between 1 and 8.
2349:Generated_Source\PSoC5/USB.c **** *
2350:Generated_Source\PSoC5/USB.c **** *  \return
2351:Generated_Source\PSoC5/USB.c **** *  If an ACKed transaction occurred, this function returns a non-zero value.
2352:Generated_Source\PSoC5/USB.c **** *  Otherwise, it returns zero.
2353:Generated_Source\PSoC5/USB.c **** *
2354:Generated_Source\PSoC5/USB.c **** *******************************************************************************/
2355:Generated_Source\PSoC5/USB.c **** uint8 USB_GetEPAckState(uint8 epNumber) 
2356:Generated_Source\PSoC5/USB.c **** {
 1483              		.loc 1 2356 0
 1484              		.cfi_startproc
 1485              		@ args = 0, pretend = 0, frame = 16
 1486              		@ frame_needed = 1, uses_anonymous_args = 0
 1487              		@ link register save eliminated.
 1488 0000 80B4     		push	{r7}
 1489              		.cfi_def_cfa_offset 4
 1490              		.cfi_offset 7, -4
 1491 0002 85B0     		sub	sp, sp, #20
 1492              		.cfi_def_cfa_offset 24
 1493 0004 00AF     		add	r7, sp, #0
 1494              		.cfi_def_cfa_register 7
 1495 0006 0346     		mov	r3, r0
 1496 0008 FB71     		strb	r3, [r7, #7]
2357:Generated_Source\PSoC5/USB.c ****     uint8 cr = 0u;
 1497              		.loc 1 2357 0
 1498 000a 0023     		movs	r3, #0
 1499 000c FB73     		strb	r3, [r7, #15]
2358:Generated_Source\PSoC5/USB.c **** 
2359:Generated_Source\PSoC5/USB.c ****     if ((epNumber > USB_EP0) && (epNumber < USB_MAX_EP))
 1500              		.loc 1 2359 0
 1501 000e FB79     		ldrb	r3, [r7, #7]	@ zero_extendqisi2
 1502 0010 002B     		cmp	r3, #0
 1503 0012 0BD0     		beq	.L80
 1504              		.loc 1 2359 0 is_stmt 0 discriminator 1
 1505 0014 FB79     		ldrb	r3, [r7, #7]	@ zero_extendqisi2
 1506 0016 082B     		cmp	r3, #8
 1507 0018 08D8     		bhi	.L80
2360:Generated_Source\PSoC5/USB.c ****     {
2361:Generated_Source\PSoC5/USB.c ****         cr = USB_SIE_EP_BASE.sieEp[epNumber].epCr0 & USB_MODE_ACKD;
 1508              		.loc 1 2361 0 is_stmt 1
 1509 001a 084A     		ldr	r2, .L82
 1510 001c FB79     		ldrb	r3, [r7, #7]	@ zero_extendqisi2
 1511 001e 1B01     		lsls	r3, r3, #4
ARM GAS  C:\Users\214016~1\AppData\Local\Temp\ccpUOjiz.s 			page 69


 1512 0020 1344     		add	r3, r3, r2
 1513 0022 9B78     		ldrb	r3, [r3, #2]
 1514 0024 DBB2     		uxtb	r3, r3
 1515 0026 03F01003 		and	r3, r3, #16
 1516 002a FB73     		strb	r3, [r7, #15]
 1517              	.L80:
2362:Generated_Source\PSoC5/USB.c ****     }
2363:Generated_Source\PSoC5/USB.c **** 
2364:Generated_Source\PSoC5/USB.c ****     return ((uint8) cr);
 1518              		.loc 1 2364 0
 1519 002c FB7B     		ldrb	r3, [r7, #15]	@ zero_extendqisi2
2365:Generated_Source\PSoC5/USB.c **** }
 1520              		.loc 1 2365 0
 1521 002e 1846     		mov	r0, r3
 1522 0030 1437     		adds	r7, r7, #20
 1523              		.cfi_def_cfa_offset 4
 1524 0032 BD46     		mov	sp, r7
 1525              		.cfi_def_cfa_register 13
 1526              		@ sp needed
 1527 0034 5DF8047B 		ldr	r7, [sp], #4
 1528              		.cfi_restore 7
 1529              		.cfi_def_cfa_offset 0
 1530 0038 7047     		bx	lr
 1531              	.L83:
 1532 003a 00BF     		.align	2
 1533              	.L82:
 1534 003c FC5F0040 		.word	1073766396
 1535              		.cfi_endproc
 1536              	.LFE16:
 1537              		.size	USB_GetEPAckState, .-USB_GetEPAckState
 1538              		.section	.text.USB_SetPowerStatus,"ax",%progbits
 1539              		.align	2
 1540              		.global	USB_SetPowerStatus
 1541              		.thumb
 1542              		.thumb_func
 1543              		.type	USB_SetPowerStatus, %function
 1544              	USB_SetPowerStatus:
 1545              	.LFB17:
2366:Generated_Source\PSoC5/USB.c **** 
2367:Generated_Source\PSoC5/USB.c **** 
2368:Generated_Source\PSoC5/USB.c **** /*******************************************************************************
2369:Generated_Source\PSoC5/USB.c **** * Function Name: USB_SetPowerStatus
2370:Generated_Source\PSoC5/USB.c **** ****************************************************************************//**
2371:Generated_Source\PSoC5/USB.c **** *
2372:Generated_Source\PSoC5/USB.c **** *  This function sets the current power status. The device replies to USB
2373:Generated_Source\PSoC5/USB.c **** *  GET_STATUS requests based on this value. This allows the device to properly
2374:Generated_Source\PSoC5/USB.c **** *  report its status for USB Chapter 9 compliance. Devices can change their
2375:Generated_Source\PSoC5/USB.c **** *  power source from self powered to bus powered at any time and report their
2376:Generated_Source\PSoC5/USB.c **** *  current power source as part of the device status. You should call this
2377:Generated_Source\PSoC5/USB.c **** *  function any time your device changes from self powered to bus powered or
2378:Generated_Source\PSoC5/USB.c **** *  vice versa, and set the status appropriately.
2379:Generated_Source\PSoC5/USB.c **** *
2380:Generated_Source\PSoC5/USB.c **** *  \param powerStatus: Contains the desired power status, one for self powered
2381:Generated_Source\PSoC5/USB.c **** *        or zero for bus powered. Symbolic names and their associated values are
2382:Generated_Source\PSoC5/USB.c **** *        given here:
2383:Generated_Source\PSoC5/USB.c **** *  Power Status                                |Description
2384:Generated_Source\PSoC5/USB.c **** *  --------------------------------------------|---------------------------
ARM GAS  C:\Users\214016~1\AppData\Local\Temp\ccpUOjiz.s 			page 70


2385:Generated_Source\PSoC5/USB.c **** *  USB_DEVICE_STATUS_BUS_POWERED  | Set the device to bus powered
2386:Generated_Source\PSoC5/USB.c **** *  USB_DEVICE_STATUS_SELF_POWERED | Set the device to self powered
2387:Generated_Source\PSoC5/USB.c **** *
2388:Generated_Source\PSoC5/USB.c **** * \globalvars
2389:Generated_Source\PSoC5/USB.c **** *
2390:Generated_Source\PSoC5/USB.c **** *  \ref USB_deviceStatus - set power status
2391:Generated_Source\PSoC5/USB.c **** *
2392:Generated_Source\PSoC5/USB.c **** * \reentrant
2393:Generated_Source\PSoC5/USB.c **** *  No.
2394:Generated_Source\PSoC5/USB.c **** *
2395:Generated_Source\PSoC5/USB.c **** *******************************************************************************/
2396:Generated_Source\PSoC5/USB.c **** void USB_SetPowerStatus(uint8 powerStatus) 
2397:Generated_Source\PSoC5/USB.c **** {
 1546              		.loc 1 2397 0
 1547              		.cfi_startproc
 1548              		@ args = 0, pretend = 0, frame = 8
 1549              		@ frame_needed = 1, uses_anonymous_args = 0
 1550              		@ link register save eliminated.
 1551 0000 80B4     		push	{r7}
 1552              		.cfi_def_cfa_offset 4
 1553              		.cfi_offset 7, -4
 1554 0002 83B0     		sub	sp, sp, #12
 1555              		.cfi_def_cfa_offset 16
 1556 0004 00AF     		add	r7, sp, #0
 1557              		.cfi_def_cfa_register 7
 1558 0006 0346     		mov	r3, r0
 1559 0008 FB71     		strb	r3, [r7, #7]
2398:Generated_Source\PSoC5/USB.c ****     if (powerStatus != USB_DEVICE_STATUS_BUS_POWERED)
 1560              		.loc 1 2398 0
 1561 000a FB79     		ldrb	r3, [r7, #7]	@ zero_extendqisi2
 1562 000c 002B     		cmp	r3, #0
 1563 000e 08D0     		beq	.L85
2399:Generated_Source\PSoC5/USB.c ****     {
2400:Generated_Source\PSoC5/USB.c ****         USB_deviceStatus |= (uint8)  USB_DEVICE_STATUS_SELF_POWERED;
 1564              		.loc 1 2400 0
 1565 0010 0A4B     		ldr	r3, .L87
 1566 0012 1B78     		ldrb	r3, [r3]
 1567 0014 DBB2     		uxtb	r3, r3
 1568 0016 43F00103 		orr	r3, r3, #1
 1569 001a DAB2     		uxtb	r2, r3
 1570 001c 074B     		ldr	r3, .L87
 1571 001e 1A70     		strb	r2, [r3]
 1572 0020 07E0     		b	.L84
 1573              	.L85:
2401:Generated_Source\PSoC5/USB.c ****     }
2402:Generated_Source\PSoC5/USB.c ****     else
2403:Generated_Source\PSoC5/USB.c ****     {
2404:Generated_Source\PSoC5/USB.c ****         USB_deviceStatus &= (uint8) ~USB_DEVICE_STATUS_SELF_POWERED;
 1574              		.loc 1 2404 0
 1575 0022 064B     		ldr	r3, .L87
 1576 0024 1B78     		ldrb	r3, [r3]
 1577 0026 DBB2     		uxtb	r3, r3
 1578 0028 23F00103 		bic	r3, r3, #1
 1579 002c DAB2     		uxtb	r2, r3
 1580 002e 034B     		ldr	r3, .L87
 1581 0030 1A70     		strb	r2, [r3]
 1582              	.L84:
ARM GAS  C:\Users\214016~1\AppData\Local\Temp\ccpUOjiz.s 			page 71


2405:Generated_Source\PSoC5/USB.c ****     }
2406:Generated_Source\PSoC5/USB.c **** }
 1583              		.loc 1 2406 0
 1584 0032 0C37     		adds	r7, r7, #12
 1585              		.cfi_def_cfa_offset 4
 1586 0034 BD46     		mov	sp, r7
 1587              		.cfi_def_cfa_register 13
 1588              		@ sp needed
 1589 0036 5DF8047B 		ldr	r7, [sp], #4
 1590              		.cfi_restore 7
 1591              		.cfi_def_cfa_offset 0
 1592 003a 7047     		bx	lr
 1593              	.L88:
 1594              		.align	2
 1595              	.L87:
 1596 003c 00000000 		.word	USB_deviceStatus
 1597              		.cfi_endproc
 1598              	.LFE17:
 1599              		.size	USB_SetPowerStatus, .-USB_SetPowerStatus
 1600              		.section	.text.USB_RWUEnabled,"ax",%progbits
 1601              		.align	2
 1602              		.global	USB_RWUEnabled
 1603              		.thumb
 1604              		.thumb_func
 1605              		.type	USB_RWUEnabled, %function
 1606              	USB_RWUEnabled:
 1607              	.LFB18:
2407:Generated_Source\PSoC5/USB.c **** 
2408:Generated_Source\PSoC5/USB.c **** 
2409:Generated_Source\PSoC5/USB.c **** #if (USB_VBUS_MONITORING_ENABLE)
2410:Generated_Source\PSoC5/USB.c ****     /***************************************************************************
2411:Generated_Source\PSoC5/USB.c ****     * Function Name: USB_VBusPresent
2412:Generated_Source\PSoC5/USB.c ****     ************************************************************************//**
2413:Generated_Source\PSoC5/USB.c ****     *
2414:Generated_Source\PSoC5/USB.c ****     *  Determines VBUS presence for self-powered devices. This function is
2415:Generated_Source\PSoC5/USB.c ****     *  available when the VBUS Monitoring option is enabled in the Advanced tab.
2416:Generated_Source\PSoC5/USB.c ****     *
2417:Generated_Source\PSoC5/USB.c ****     * \return
2418:Generated_Source\PSoC5/USB.c ****     *  The return value can be the following:
2419:Generated_Source\PSoC5/USB.c ****     *  Return Value | Description
2420:Generated_Source\PSoC5/USB.c ****     *  -------------|-----------------
2421:Generated_Source\PSoC5/USB.c ****     *  1            | VBUS is present
2422:Generated_Source\PSoC5/USB.c ****     *  0            | VBUS is absent
2423:Generated_Source\PSoC5/USB.c ****     *
2424:Generated_Source\PSoC5/USB.c ****     *
2425:Generated_Source\PSoC5/USB.c ****     ***************************************************************************/
2426:Generated_Source\PSoC5/USB.c ****     uint8 USB_VBusPresent(void) 
2427:Generated_Source\PSoC5/USB.c ****     {
2428:Generated_Source\PSoC5/USB.c ****         return ((0u != (USB_VBUS_STATUS_REG & USB_VBUS_VALID)) ? (uint8) 1u : (uint8) 0u);
2429:Generated_Source\PSoC5/USB.c ****     }
2430:Generated_Source\PSoC5/USB.c **** #endif /* (USB_VBUS_MONITORING_ENABLE) */
2431:Generated_Source\PSoC5/USB.c **** 
2432:Generated_Source\PSoC5/USB.c **** 
2433:Generated_Source\PSoC5/USB.c **** /*******************************************************************************
2434:Generated_Source\PSoC5/USB.c **** * Function Name: USB_RWUEnabled
2435:Generated_Source\PSoC5/USB.c **** ****************************************************************************//**
2436:Generated_Source\PSoC5/USB.c **** *
ARM GAS  C:\Users\214016~1\AppData\Local\Temp\ccpUOjiz.s 			page 72


2437:Generated_Source\PSoC5/USB.c **** *  This function returns the current remote wakeup status.
2438:Generated_Source\PSoC5/USB.c **** *  If the device supports remote wakeup, the application should use this
2439:Generated_Source\PSoC5/USB.c **** *  function to determine if remote wakeup was enabled by the host. When the
2440:Generated_Source\PSoC5/USB.c **** *  device is suspended and it determines the conditions to initiate a remote
2441:Generated_Source\PSoC5/USB.c **** *  wakeup are met, the application should use the USBFS_Force() function to
2442:Generated_Source\PSoC5/USB.c **** *  force the appropriate J and K states onto the USB bus, signaling a remote
2443:Generated_Source\PSoC5/USB.c **** *  wakeup.
2444:Generated_Source\PSoC5/USB.c **** *
2445:Generated_Source\PSoC5/USB.c **** *
2446:Generated_Source\PSoC5/USB.c **** * \return
2447:Generated_Source\PSoC5/USB.c **** *  Returns non-zero value if remote wakeup is enabled and zero otherwise.
2448:Generated_Source\PSoC5/USB.c **** *
2449:Generated_Source\PSoC5/USB.c **** * \globalvars
2450:Generated_Source\PSoC5/USB.c **** *  USB_deviceStatus - checked to determine remote status
2451:Generated_Source\PSoC5/USB.c **** *
2452:Generated_Source\PSoC5/USB.c **** *******************************************************************************/
2453:Generated_Source\PSoC5/USB.c **** uint8 USB_RWUEnabled(void) 
2454:Generated_Source\PSoC5/USB.c **** {
 1608              		.loc 1 2454 0
 1609              		.cfi_startproc
 1610              		@ args = 0, pretend = 0, frame = 8
 1611              		@ frame_needed = 1, uses_anonymous_args = 0
 1612              		@ link register save eliminated.
 1613 0000 80B4     		push	{r7}
 1614              		.cfi_def_cfa_offset 4
 1615              		.cfi_offset 7, -4
 1616 0002 83B0     		sub	sp, sp, #12
 1617              		.cfi_def_cfa_offset 16
 1618 0004 00AF     		add	r7, sp, #0
 1619              		.cfi_def_cfa_register 7
2455:Generated_Source\PSoC5/USB.c ****     uint8 result = USB_FALSE;
 1620              		.loc 1 2455 0
 1621 0006 0023     		movs	r3, #0
 1622 0008 FB71     		strb	r3, [r7, #7]
2456:Generated_Source\PSoC5/USB.c **** 
2457:Generated_Source\PSoC5/USB.c ****     if (0u != (USB_deviceStatus & USB_DEVICE_STATUS_REMOTE_WAKEUP))
 1623              		.loc 1 2457 0
 1624 000a 084B     		ldr	r3, .L92
 1625 000c 1B78     		ldrb	r3, [r3]
 1626 000e DBB2     		uxtb	r3, r3
 1627 0010 03F00203 		and	r3, r3, #2
 1628 0014 002B     		cmp	r3, #0
 1629 0016 01D0     		beq	.L90
2458:Generated_Source\PSoC5/USB.c ****     {
2459:Generated_Source\PSoC5/USB.c ****         result = USB_TRUE;
 1630              		.loc 1 2459 0
 1631 0018 0123     		movs	r3, #1
 1632 001a FB71     		strb	r3, [r7, #7]
 1633              	.L90:
2460:Generated_Source\PSoC5/USB.c ****     }
2461:Generated_Source\PSoC5/USB.c **** 
2462:Generated_Source\PSoC5/USB.c ****     return (result);
 1634              		.loc 1 2462 0
 1635 001c FB79     		ldrb	r3, [r7, #7]	@ zero_extendqisi2
2463:Generated_Source\PSoC5/USB.c **** }
 1636              		.loc 1 2463 0
 1637 001e 1846     		mov	r0, r3
ARM GAS  C:\Users\214016~1\AppData\Local\Temp\ccpUOjiz.s 			page 73


 1638 0020 0C37     		adds	r7, r7, #12
 1639              		.cfi_def_cfa_offset 4
 1640 0022 BD46     		mov	sp, r7
 1641              		.cfi_def_cfa_register 13
 1642              		@ sp needed
 1643 0024 5DF8047B 		ldr	r7, [sp], #4
 1644              		.cfi_restore 7
 1645              		.cfi_def_cfa_offset 0
 1646 0028 7047     		bx	lr
 1647              	.L93:
 1648 002a 00BF     		.align	2
 1649              	.L92:
 1650 002c 00000000 		.word	USB_deviceStatus
 1651              		.cfi_endproc
 1652              	.LFE18:
 1653              		.size	USB_RWUEnabled, .-USB_RWUEnabled
 1654              		.section	.text.USB_GetDeviceAddress,"ax",%progbits
 1655              		.align	2
 1656              		.global	USB_GetDeviceAddress
 1657              		.thumb
 1658              		.thumb_func
 1659              		.type	USB_GetDeviceAddress, %function
 1660              	USB_GetDeviceAddress:
 1661              	.LFB19:
2464:Generated_Source\PSoC5/USB.c **** 
2465:Generated_Source\PSoC5/USB.c **** 
2466:Generated_Source\PSoC5/USB.c **** /*******************************************************************************
2467:Generated_Source\PSoC5/USB.c **** * Function Name: USB_GetDeviceAddress
2468:Generated_Source\PSoC5/USB.c **** ****************************************************************************//**
2469:Generated_Source\PSoC5/USB.c **** *
2470:Generated_Source\PSoC5/USB.c **** *  This function returns the currently assigned address for the USB device.
2471:Generated_Source\PSoC5/USB.c **** *
2472:Generated_Source\PSoC5/USB.c **** * \return
2473:Generated_Source\PSoC5/USB.c **** *  Returns the currently assigned address.
2474:Generated_Source\PSoC5/USB.c **** *  Returns 0 if the device has not yet been assigned an address.
2475:Generated_Source\PSoC5/USB.c **** *
2476:Generated_Source\PSoC5/USB.c **** *******************************************************************************/
2477:Generated_Source\PSoC5/USB.c **** uint8 USB_GetDeviceAddress(void) 
2478:Generated_Source\PSoC5/USB.c **** {
 1662              		.loc 1 2478 0
 1663              		.cfi_startproc
 1664              		@ args = 0, pretend = 0, frame = 0
 1665              		@ frame_needed = 1, uses_anonymous_args = 0
 1666              		@ link register save eliminated.
 1667 0000 80B4     		push	{r7}
 1668              		.cfi_def_cfa_offset 4
 1669              		.cfi_offset 7, -4
 1670 0002 00AF     		add	r7, sp, #0
 1671              		.cfi_def_cfa_register 7
2479:Generated_Source\PSoC5/USB.c ****     return (uint8)(USB_CR0_REG & USB_CR0_DEVICE_ADDRESS_MASK);
 1672              		.loc 1 2479 0
 1673 0004 054B     		ldr	r3, .L96
 1674 0006 1B78     		ldrb	r3, [r3]
 1675 0008 DBB2     		uxtb	r3, r3
 1676 000a 03F07F03 		and	r3, r3, #127
 1677 000e DBB2     		uxtb	r3, r3
2480:Generated_Source\PSoC5/USB.c **** }
ARM GAS  C:\Users\214016~1\AppData\Local\Temp\ccpUOjiz.s 			page 74


 1678              		.loc 1 2480 0
 1679 0010 1846     		mov	r0, r3
 1680 0012 BD46     		mov	sp, r7
 1681              		.cfi_def_cfa_register 13
 1682              		@ sp needed
 1683 0014 5DF8047B 		ldr	r7, [sp], #4
 1684              		.cfi_restore 7
 1685              		.cfi_def_cfa_offset 0
 1686 0018 7047     		bx	lr
 1687              	.L97:
 1688 001a 00BF     		.align	2
 1689              	.L96:
 1690 001c 08600040 		.word	1073766408
 1691              		.cfi_endproc
 1692              	.LFE19:
 1693              		.size	USB_GetDeviceAddress, .-USB_GetDeviceAddress
 1694              		.section	.text.USB_EnableSofInt,"ax",%progbits
 1695              		.align	2
 1696              		.global	USB_EnableSofInt
 1697              		.thumb
 1698              		.thumb_func
 1699              		.type	USB_EnableSofInt, %function
 1700              	USB_EnableSofInt:
 1701              	.LFB20:
2481:Generated_Source\PSoC5/USB.c **** 
2482:Generated_Source\PSoC5/USB.c **** 
2483:Generated_Source\PSoC5/USB.c **** /*******************************************************************************
2484:Generated_Source\PSoC5/USB.c **** * Function Name: USB_EnableSofInt
2485:Generated_Source\PSoC5/USB.c **** ****************************************************************************//**
2486:Generated_Source\PSoC5/USB.c **** *
2487:Generated_Source\PSoC5/USB.c **** *  This function enables interrupt generation when a Start-of-Frame (SOF)
2488:Generated_Source\PSoC5/USB.c **** *  packet is received from the host.
2489:Generated_Source\PSoC5/USB.c **** *
2490:Generated_Source\PSoC5/USB.c **** *******************************************************************************/
2491:Generated_Source\PSoC5/USB.c **** void USB_EnableSofInt(void) 
2492:Generated_Source\PSoC5/USB.c **** {
 1702              		.loc 1 2492 0
 1703              		.cfi_startproc
 1704              		@ args = 0, pretend = 0, frame = 0
 1705              		@ frame_needed = 1, uses_anonymous_args = 0
 1706              		@ link register save eliminated.
 1707 0000 80B4     		push	{r7}
 1708              		.cfi_def_cfa_offset 4
 1709              		.cfi_offset 7, -4
 1710 0002 00AF     		add	r7, sp, #0
 1711              		.cfi_def_cfa_register 7
2493:Generated_Source\PSoC5/USB.c **** #if (CY_PSOC4)
2494:Generated_Source\PSoC5/USB.c ****     /* Enable SOF interrupt interrupt source. */
2495:Generated_Source\PSoC5/USB.c ****     USB_INTR_SIE_MASK_REG |= (uint32) USB_INTR_SIE_SOF_INTR;
2496:Generated_Source\PSoC5/USB.c **** #else
2497:Generated_Source\PSoC5/USB.c ****     /* Enable SOF interrupt if it is present. */
2498:Generated_Source\PSoC5/USB.c ****     #if (USB_SOF_ISR_ACTIVE)
2499:Generated_Source\PSoC5/USB.c ****         CyIntEnable(USB_SOF_VECT_NUM);
 1712              		.loc 1 2499 0
 1713 0004 034B     		ldr	r3, .L99
 1714 0006 4FF40012 		mov	r2, #2097152
 1715 000a 1A60     		str	r2, [r3]
ARM GAS  C:\Users\214016~1\AppData\Local\Temp\ccpUOjiz.s 			page 75


2500:Generated_Source\PSoC5/USB.c ****     #endif /* (USB_SOF_ISR_ACTIVE) */
2501:Generated_Source\PSoC5/USB.c **** #endif /* (CY_PSOC4) */
2502:Generated_Source\PSoC5/USB.c **** }
 1716              		.loc 1 2502 0
 1717 000c BD46     		mov	sp, r7
 1718              		.cfi_def_cfa_register 13
 1719              		@ sp needed
 1720 000e 5DF8047B 		ldr	r7, [sp], #4
 1721              		.cfi_restore 7
 1722              		.cfi_def_cfa_offset 0
 1723 0012 7047     		bx	lr
 1724              	.L100:
 1725              		.align	2
 1726              	.L99:
 1727 0014 00E100E0 		.word	-536813312
 1728              		.cfi_endproc
 1729              	.LFE20:
 1730              		.size	USB_EnableSofInt, .-USB_EnableSofInt
 1731              		.section	.text.USB_DisableSofInt,"ax",%progbits
 1732              		.align	2
 1733              		.global	USB_DisableSofInt
 1734              		.thumb
 1735              		.thumb_func
 1736              		.type	USB_DisableSofInt, %function
 1737              	USB_DisableSofInt:
 1738              	.LFB21:
2503:Generated_Source\PSoC5/USB.c **** 
2504:Generated_Source\PSoC5/USB.c **** 
2505:Generated_Source\PSoC5/USB.c **** /*******************************************************************************
2506:Generated_Source\PSoC5/USB.c **** * Function Name: USB_DisableSofInt
2507:Generated_Source\PSoC5/USB.c **** ****************************************************************************//**
2508:Generated_Source\PSoC5/USB.c **** *
2509:Generated_Source\PSoC5/USB.c **** *  This function disables interrupt generation when a Start-of-Frame (SOF)
2510:Generated_Source\PSoC5/USB.c **** *  packet is received from the host.
2511:Generated_Source\PSoC5/USB.c **** *
2512:Generated_Source\PSoC5/USB.c **** *******************************************************************************/
2513:Generated_Source\PSoC5/USB.c **** void USB_DisableSofInt(void) 
2514:Generated_Source\PSoC5/USB.c **** {
 1739              		.loc 1 2514 0
 1740              		.cfi_startproc
 1741              		@ args = 0, pretend = 0, frame = 0
 1742              		@ frame_needed = 1, uses_anonymous_args = 0
 1743              		@ link register save eliminated.
 1744 0000 80B4     		push	{r7}
 1745              		.cfi_def_cfa_offset 4
 1746              		.cfi_offset 7, -4
 1747 0002 00AF     		add	r7, sp, #0
 1748              		.cfi_def_cfa_register 7
2515:Generated_Source\PSoC5/USB.c **** #if (CY_PSOC4)
2516:Generated_Source\PSoC5/USB.c ****     /* Disable SOF interrupt interrupt source. */
2517:Generated_Source\PSoC5/USB.c ****     USB_INTR_SIE_MASK_REG &= (uint32) ~USB_INTR_SIE_SOF_INTR;
2518:Generated_Source\PSoC5/USB.c **** #else
2519:Generated_Source\PSoC5/USB.c ****     /* Disable SOF interrupt if it is present. */
2520:Generated_Source\PSoC5/USB.c ****     #if (USB_SOF_ISR_ACTIVE)
2521:Generated_Source\PSoC5/USB.c ****         CyIntDisable(USB_SOF_VECT_NUM);
 1749              		.loc 1 2521 0
 1750 0004 034B     		ldr	r3, .L102
ARM GAS  C:\Users\214016~1\AppData\Local\Temp\ccpUOjiz.s 			page 76


 1751 0006 4FF40012 		mov	r2, #2097152
 1752 000a 1A60     		str	r2, [r3]
2522:Generated_Source\PSoC5/USB.c ****     #endif /* (USB_SOF_ISR_ACTIVE) */
2523:Generated_Source\PSoC5/USB.c **** #endif /* (CY_PSOC4) */
2524:Generated_Source\PSoC5/USB.c **** }
 1753              		.loc 1 2524 0
 1754 000c BD46     		mov	sp, r7
 1755              		.cfi_def_cfa_register 13
 1756              		@ sp needed
 1757 000e 5DF8047B 		ldr	r7, [sp], #4
 1758              		.cfi_restore 7
 1759              		.cfi_def_cfa_offset 0
 1760 0012 7047     		bx	lr
 1761              	.L103:
 1762              		.align	2
 1763              	.L102:
 1764 0014 80E100E0 		.word	-536813184
 1765              		.cfi_endproc
 1766              	.LFE21:
 1767              		.size	USB_DisableSofInt, .-USB_DisableSofInt
 1768              		.text
 1769              	.Letext0:
 1770              		.file 2 "Generated_Source\\PSoC5\\cytypes.h"
 1771              		.file 3 "Generated_Source\\PSoC5\\USB.h"
 1772              		.file 4 "Generated_Source\\PSoC5\\USB_pvt.h"
 1773              		.section	.debug_info,"",%progbits
 1774              	.Ldebug_info0:
 1775 0000 07070000 		.4byte	0x707
 1776 0004 0400     		.2byte	0x4
 1777 0006 00000000 		.4byte	.Ldebug_abbrev0
 1778 000a 04       		.byte	0x4
 1779 000b 01       		.uleb128 0x1
 1780 000c A6020000 		.4byte	.LASF91
 1781 0010 01       		.byte	0x1
 1782 0011 31010000 		.4byte	.LASF92
 1783 0015 83040000 		.4byte	.LASF93
 1784 0019 00000000 		.4byte	.Ldebug_ranges0+0
 1785 001d 00000000 		.4byte	0
 1786 0021 00000000 		.4byte	.Ldebug_line0
 1787 0025 02       		.uleb128 0x2
 1788 0026 01       		.byte	0x1
 1789 0027 06       		.byte	0x6
 1790 0028 E3000000 		.4byte	.LASF0
 1791 002c 02       		.uleb128 0x2
 1792 002d 01       		.byte	0x1
 1793 002e 08       		.byte	0x8
 1794 002f C5030000 		.4byte	.LASF1
 1795 0033 02       		.uleb128 0x2
 1796 0034 02       		.byte	0x2
 1797 0035 05       		.byte	0x5
 1798 0036 EB030000 		.4byte	.LASF2
 1799 003a 02       		.uleb128 0x2
 1800 003b 02       		.byte	0x2
 1801 003c 07       		.byte	0x7
 1802 003d EE010000 		.4byte	.LASF3
 1803 0041 02       		.uleb128 0x2
 1804 0042 04       		.byte	0x4
ARM GAS  C:\Users\214016~1\AppData\Local\Temp\ccpUOjiz.s 			page 77


 1805 0043 05       		.byte	0x5
 1806 0044 13010000 		.4byte	.LASF4
 1807 0048 02       		.uleb128 0x2
 1808 0049 04       		.byte	0x4
 1809 004a 07       		.byte	0x7
 1810 004b CA010000 		.4byte	.LASF5
 1811 004f 02       		.uleb128 0x2
 1812 0050 08       		.byte	0x8
 1813 0051 05       		.byte	0x5
 1814 0052 D5000000 		.4byte	.LASF6
 1815 0056 02       		.uleb128 0x2
 1816 0057 08       		.byte	0x8
 1817 0058 07       		.byte	0x7
 1818 0059 61000000 		.4byte	.LASF7
 1819 005d 03       		.uleb128 0x3
 1820 005e 04       		.byte	0x4
 1821 005f 05       		.byte	0x5
 1822 0060 696E7400 		.ascii	"int\000"
 1823 0064 02       		.uleb128 0x2
 1824 0065 04       		.byte	0x4
 1825 0066 07       		.byte	0x7
 1826 0067 BD010000 		.4byte	.LASF8
 1827 006b 04       		.uleb128 0x4
 1828 006c 4E010000 		.4byte	.LASF9
 1829 0070 02       		.byte	0x2
 1830 0071 9201     		.2byte	0x192
 1831 0073 2C000000 		.4byte	0x2c
 1832 0077 04       		.uleb128 0x4
 1833 0078 00000000 		.4byte	.LASF10
 1834 007c 02       		.byte	0x2
 1835 007d 9301     		.2byte	0x193
 1836 007f 3A000000 		.4byte	0x3a
 1837 0083 04       		.uleb128 0x4
 1838 0084 7A010000 		.4byte	.LASF11
 1839 0088 02       		.byte	0x2
 1840 0089 9401     		.2byte	0x194
 1841 008b 48000000 		.4byte	0x48
 1842 008f 02       		.uleb128 0x2
 1843 0090 04       		.byte	0x4
 1844 0091 04       		.byte	0x4
 1845 0092 64030000 		.4byte	.LASF12
 1846 0096 02       		.uleb128 0x2
 1847 0097 08       		.byte	0x8
 1848 0098 04       		.byte	0x4
 1849 0099 62010000 		.4byte	.LASF13
 1850 009d 02       		.uleb128 0x2
 1851 009e 01       		.byte	0x1
 1852 009f 08       		.byte	0x8
 1853 00a0 63040000 		.4byte	.LASF14
 1854 00a4 04       		.uleb128 0x4
 1855 00a5 AE030000 		.4byte	.LASF15
 1856 00a9 02       		.byte	0x2
 1857 00aa 3C02     		.2byte	0x23c
 1858 00ac B0000000 		.4byte	0xb0
 1859 00b0 05       		.uleb128 0x5
 1860 00b1 6B000000 		.4byte	0x6b
 1861 00b5 04       		.uleb128 0x4
ARM GAS  C:\Users\214016~1\AppData\Local\Temp\ccpUOjiz.s 			page 78


 1862 00b6 22020000 		.4byte	.LASF16
 1863 00ba 02       		.byte	0x2
 1864 00bb 3E02     		.2byte	0x23e
 1865 00bd C1000000 		.4byte	0xc1
 1866 00c1 05       		.uleb128 0x5
 1867 00c2 83000000 		.4byte	0x83
 1868 00c6 02       		.uleb128 0x2
 1869 00c7 04       		.byte	0x4
 1870 00c8 07       		.byte	0x7
 1871 00c9 69020000 		.4byte	.LASF17
 1872 00cd 06       		.uleb128 0x6
 1873 00ce 0C       		.byte	0xc
 1874 00cf 03       		.byte	0x3
 1875 00d0 8E       		.byte	0x8e
 1876 00d1 42010000 		.4byte	0x142
 1877 00d5 07       		.uleb128 0x7
 1878 00d6 78020000 		.4byte	.LASF18
 1879 00da 03       		.byte	0x3
 1880 00db 90       		.byte	0x90
 1881 00dc 6B000000 		.4byte	0x6b
 1882 00e0 00       		.byte	0
 1883 00e1 07       		.uleb128 0x7
 1884 00e2 6A030000 		.4byte	.LASF19
 1885 00e6 03       		.byte	0x3
 1886 00e7 91       		.byte	0x91
 1887 00e8 6B000000 		.4byte	0x6b
 1888 00ec 01       		.byte	0x1
 1889 00ed 07       		.uleb128 0x7
 1890 00ee 5F020000 		.4byte	.LASF20
 1891 00f2 03       		.byte	0x3
 1892 00f3 92       		.byte	0x92
 1893 00f4 6B000000 		.4byte	0x6b
 1894 00f8 02       		.byte	0x2
 1895 00f9 07       		.uleb128 0x7
 1896 00fa 54010000 		.4byte	.LASF21
 1897 00fe 03       		.byte	0x3
 1898 00ff 93       		.byte	0x93
 1899 0100 6B000000 		.4byte	0x6b
 1900 0104 03       		.byte	0x3
 1901 0105 07       		.uleb128 0x7
 1902 0106 78000000 		.4byte	.LASF22
 1903 010a 03       		.byte	0x3
 1904 010b 94       		.byte	0x94
 1905 010c 6B000000 		.4byte	0x6b
 1906 0110 04       		.byte	0x4
 1907 0111 07       		.uleb128 0x7
 1908 0112 9B010000 		.4byte	.LASF23
 1909 0116 03       		.byte	0x3
 1910 0117 95       		.byte	0x95
 1911 0118 6B000000 		.4byte	0x6b
 1912 011c 05       		.byte	0x5
 1913 011d 07       		.uleb128 0x7
 1914 011e 78040000 		.4byte	.LASF24
 1915 0122 03       		.byte	0x3
 1916 0123 96       		.byte	0x96
 1917 0124 77000000 		.4byte	0x77
 1918 0128 06       		.byte	0x6
ARM GAS  C:\Users\214016~1\AppData\Local\Temp\ccpUOjiz.s 			page 79


 1919 0129 07       		.uleb128 0x7
 1920 012a 6D040000 		.4byte	.LASF25
 1921 012e 03       		.byte	0x3
 1922 012f 97       		.byte	0x97
 1923 0130 77000000 		.4byte	0x77
 1924 0134 08       		.byte	0x8
 1925 0135 07       		.uleb128 0x7
 1926 0136 11020000 		.4byte	.LASF26
 1927 013a 03       		.byte	0x3
 1928 013b 98       		.byte	0x98
 1929 013c 6B000000 		.4byte	0x6b
 1930 0140 0A       		.byte	0xa
 1931 0141 00       		.byte	0
 1932 0142 08       		.uleb128 0x8
 1933 0143 98000000 		.4byte	.LASF27
 1934 0147 03       		.byte	0x3
 1935 0148 99       		.byte	0x99
 1936 0149 CD000000 		.4byte	0xcd
 1937 014d 06       		.uleb128 0x6
 1938 014e 10       		.byte	0x10
 1939 014f 03       		.byte	0x3
 1940 0150 D5       		.byte	0xd5
 1941 0151 86010000 		.4byte	0x186
 1942 0155 07       		.uleb128 0x7
 1943 0156 49030000 		.4byte	.LASF28
 1944 015a 03       		.byte	0x3
 1945 015b D7       		.byte	0xd7
 1946 015c 6B000000 		.4byte	0x6b
 1947 0160 00       		.byte	0
 1948 0161 07       		.uleb128 0x7
 1949 0162 50030000 		.4byte	.LASF29
 1950 0166 03       		.byte	0x3
 1951 0167 D8       		.byte	0xd8
 1952 0168 6B000000 		.4byte	0x6b
 1953 016c 01       		.byte	0x1
 1954 016d 07       		.uleb128 0x7
 1955 016e 5E030000 		.4byte	.LASF30
 1956 0172 03       		.byte	0x3
 1957 0173 D9       		.byte	0xd9
 1958 0174 6B000000 		.4byte	0x6b
 1959 0178 02       		.byte	0x2
 1960 0179 09       		.uleb128 0x9
 1961 017a 67617000 		.ascii	"gap\000"
 1962 017e 03       		.byte	0x3
 1963 017f DA       		.byte	0xda
 1964 0180 86010000 		.4byte	0x186
 1965 0184 03       		.byte	0x3
 1966 0185 00       		.byte	0
 1967 0186 0A       		.uleb128 0xa
 1968 0187 6B000000 		.4byte	0x6b
 1969 018b 96010000 		.4byte	0x196
 1970 018f 0B       		.uleb128 0xb
 1971 0190 C6000000 		.4byte	0xc6
 1972 0194 0C       		.byte	0xc
 1973 0195 00       		.byte	0
 1974 0196 08       		.uleb128 0x8
 1975 0197 ED040000 		.4byte	.LASF31
ARM GAS  C:\Users\214016~1\AppData\Local\Temp\ccpUOjiz.s 			page 80


 1976 019b 03       		.byte	0x3
 1977 019c DB       		.byte	0xdb
 1978 019d 4D010000 		.4byte	0x14d
 1979 01a1 06       		.uleb128 0x6
 1980 01a2 10       		.byte	0x10
 1981 01a3 03       		.byte	0x3
 1982 01a4 E7       		.byte	0xe7
 1983 01a5 22020000 		.4byte	0x222
 1984 01a9 07       		.uleb128 0x7
 1985 01aa 7D000000 		.4byte	.LASF32
 1986 01ae 03       		.byte	0x3
 1987 01af E9       		.byte	0xe9
 1988 01b0 6B000000 		.4byte	0x6b
 1989 01b4 00       		.byte	0
 1990 01b5 07       		.uleb128 0x7
 1991 01b6 15050000 		.4byte	.LASF33
 1992 01ba 03       		.byte	0x3
 1993 01bb EA       		.byte	0xea
 1994 01bc 6B000000 		.4byte	0x6b
 1995 01c0 01       		.byte	0x1
 1996 01c1 07       		.uleb128 0x7
 1997 01c2 75010000 		.4byte	.LASF34
 1998 01c6 03       		.byte	0x3
 1999 01c7 EB       		.byte	0xeb
 2000 01c8 6B000000 		.4byte	0x6b
 2001 01cc 02       		.byte	0x2
 2002 01cd 07       		.uleb128 0x7
 2003 01ce A2010000 		.4byte	.LASF35
 2004 01d2 03       		.byte	0x3
 2005 01d3 EC       		.byte	0xec
 2006 01d4 6B000000 		.4byte	0x6b
 2007 01d8 03       		.byte	0x3
 2008 01d9 07       		.uleb128 0x7
 2009 01da 5D010000 		.4byte	.LASF36
 2010 01de 03       		.byte	0x3
 2011 01df ED       		.byte	0xed
 2012 01e0 6B000000 		.4byte	0x6b
 2013 01e4 04       		.byte	0x4
 2014 01e5 07       		.uleb128 0x7
 2015 01e6 28040000 		.4byte	.LASF37
 2016 01ea 03       		.byte	0x3
 2017 01eb EE       		.byte	0xee
 2018 01ec 6B000000 		.4byte	0x6b
 2019 01f0 05       		.byte	0x5
 2020 01f1 07       		.uleb128 0x7
 2021 01f2 23040000 		.4byte	.LASF38
 2022 01f6 03       		.byte	0x3
 2023 01f7 EF       		.byte	0xef
 2024 01f8 6B000000 		.4byte	0x6b
 2025 01fc 06       		.byte	0x6
 2026 01fd 07       		.uleb128 0x7
 2027 01fe 34030000 		.4byte	.LASF39
 2028 0202 03       		.byte	0x3
 2029 0203 F0       		.byte	0xf0
 2030 0204 6B000000 		.4byte	0x6b
 2031 0208 07       		.byte	0x7
 2032 0209 07       		.uleb128 0x7
ARM GAS  C:\Users\214016~1\AppData\Local\Temp\ccpUOjiz.s 			page 81


 2033 020a 10050000 		.4byte	.LASF40
 2034 020e 03       		.byte	0x3
 2035 020f F1       		.byte	0xf1
 2036 0210 6B000000 		.4byte	0x6b
 2037 0214 08       		.byte	0x8
 2038 0215 09       		.uleb128 0x9
 2039 0216 67617000 		.ascii	"gap\000"
 2040 021a 03       		.byte	0x3
 2041 021b F2       		.byte	0xf2
 2042 021c 22020000 		.4byte	0x222
 2043 0220 09       		.byte	0x9
 2044 0221 00       		.byte	0
 2045 0222 0A       		.uleb128 0xa
 2046 0223 6B000000 		.4byte	0x6b
 2047 0227 32020000 		.4byte	0x232
 2048 022b 0B       		.uleb128 0xb
 2049 022c C6000000 		.4byte	0xc6
 2050 0230 06       		.byte	0x6
 2051 0231 00       		.byte	0
 2052 0232 08       		.uleb128 0x8
 2053 0233 9C030000 		.4byte	.LASF41
 2054 0237 03       		.byte	0x3
 2055 0238 F3       		.byte	0xf3
 2056 0239 A1010000 		.4byte	0x1a1
 2057 023d 0C       		.uleb128 0xc
 2058 023e 90       		.byte	0x90
 2059 023f 03       		.byte	0x3
 2060 0240 0F01     		.2byte	0x10f
 2061 0242 54020000 		.4byte	0x254
 2062 0246 0D       		.uleb128 0xd
 2063 0247 72020000 		.4byte	.LASF42
 2064 024b 03       		.byte	0x3
 2065 024c 1101     		.2byte	0x111
 2066 024e 54020000 		.4byte	0x254
 2067 0252 00       		.byte	0
 2068 0253 00       		.byte	0
 2069 0254 0A       		.uleb128 0xa
 2070 0255 96010000 		.4byte	0x196
 2071 0259 64020000 		.4byte	0x264
 2072 025d 0B       		.uleb128 0xb
 2073 025e C6000000 		.4byte	0xc6
 2074 0262 08       		.byte	0x8
 2075 0263 00       		.byte	0
 2076 0264 04       		.uleb128 0x4
 2077 0265 39020000 		.4byte	.LASF43
 2078 0269 03       		.byte	0x3
 2079 026a 1201     		.2byte	0x112
 2080 026c 3D020000 		.4byte	0x23d
 2081 0270 0C       		.uleb128 0xc
 2082 0271 90       		.byte	0x90
 2083 0272 03       		.byte	0x3
 2084 0273 1501     		.2byte	0x115
 2085 0275 87020000 		.4byte	0x287
 2086 0279 0D       		.uleb128 0xd
 2087 027a 0B020000 		.4byte	.LASF44
 2088 027e 03       		.byte	0x3
 2089 027f 1701     		.2byte	0x117
ARM GAS  C:\Users\214016~1\AppData\Local\Temp\ccpUOjiz.s 			page 82


 2090 0281 87020000 		.4byte	0x287
 2091 0285 00       		.byte	0
 2092 0286 00       		.byte	0
 2093 0287 0A       		.uleb128 0xa
 2094 0288 32020000 		.4byte	0x232
 2095 028c 97020000 		.4byte	0x297
 2096 0290 0B       		.uleb128 0xb
 2097 0291 C6000000 		.4byte	0xc6
 2098 0295 08       		.byte	0x8
 2099 0296 00       		.byte	0
 2100 0297 04       		.uleb128 0x4
 2101 0298 4C020000 		.4byte	.LASF45
 2102 029c 03       		.byte	0x3
 2103 029d 1801     		.2byte	0x118
 2104 029f 70020000 		.4byte	0x270
 2105 02a3 0E       		.uleb128 0xe
 2106 02a4 01020000 		.4byte	.LASF48
 2107 02a8 01       		.byte	0x1
 2108 02a9 BA       		.byte	0xba
 2109 02aa 00000000 		.4byte	.LFB0
 2110 02ae 38000000 		.4byte	.LFE0-.LFB0
 2111 02b2 01       		.uleb128 0x1
 2112 02b3 9C       		.byte	0x9c
 2113 02b4 D5020000 		.4byte	0x2d5
 2114 02b8 0F       		.uleb128 0xf
 2115 02b9 CE000000 		.4byte	.LASF46
 2116 02bd 01       		.byte	0x1
 2117 02be BA       		.byte	0xba
 2118 02bf 6B000000 		.4byte	0x6b
 2119 02c3 02       		.uleb128 0x2
 2120 02c4 91       		.byte	0x91
 2121 02c5 77       		.sleb128 -9
 2122 02c6 0F       		.uleb128 0xf
 2123 02c7 68040000 		.4byte	.LASF47
 2124 02cb 01       		.byte	0x1
 2125 02cc BA       		.byte	0xba
 2126 02cd 6B000000 		.4byte	0x6b
 2127 02d1 02       		.uleb128 0x2
 2128 02d2 91       		.byte	0x91
 2129 02d3 76       		.sleb128 -10
 2130 02d4 00       		.byte	0
 2131 02d5 0E       		.uleb128 0xe
 2132 02d6 7F020000 		.4byte	.LASF49
 2133 02da 01       		.byte	0x1
 2134 02db D3       		.byte	0xd3
 2135 02dc 00000000 		.4byte	.LFB1
 2136 02e0 8C010000 		.4byte	.LFE1-.LFB1
 2137 02e4 01       		.uleb128 0x1
 2138 02e5 9C       		.byte	0x9c
 2139 02e6 F9020000 		.4byte	0x2f9
 2140 02ea 10       		.uleb128 0x10
 2141 02eb FF040000 		.4byte	.LASF52
 2142 02ef 01       		.byte	0x1
 2143 02f0 FA       		.byte	0xfa
 2144 02f1 6B000000 		.4byte	0x6b
 2145 02f5 02       		.uleb128 0x2
 2146 02f6 91       		.byte	0x91
ARM GAS  C:\Users\214016~1\AppData\Local\Temp\ccpUOjiz.s 			page 83


 2147 02f7 77       		.sleb128 -9
 2148 02f8 00       		.byte	0
 2149 02f9 11       		.uleb128 0x11
 2150 02fa 07000000 		.4byte	.LASF50
 2151 02fe 01       		.byte	0x1
 2152 02ff CC01     		.2byte	0x1cc
 2153 0301 00000000 		.4byte	.LFB2
 2154 0305 F8000000 		.4byte	.LFE2-.LFB2
 2155 0309 01       		.uleb128 0x1
 2156 030a 9C       		.byte	0x9c
 2157 030b 2E030000 		.4byte	0x32e
 2158 030f 12       		.uleb128 0x12
 2159 0310 CE000000 		.4byte	.LASF46
 2160 0314 01       		.byte	0x1
 2161 0315 CC01     		.2byte	0x1cc
 2162 0317 6B000000 		.4byte	0x6b
 2163 031b 02       		.uleb128 0x2
 2164 031c 91       		.byte	0x91
 2165 031d 77       		.sleb128 -9
 2166 031e 12       		.uleb128 0x12
 2167 031f 68040000 		.4byte	.LASF47
 2168 0323 01       		.byte	0x1
 2169 0324 CC01     		.2byte	0x1cc
 2170 0326 6B000000 		.4byte	0x6b
 2171 032a 02       		.uleb128 0x2
 2172 032b 91       		.byte	0x91
 2173 032c 76       		.sleb128 -10
 2174 032d 00       		.byte	0
 2175 032e 13       		.uleb128 0x13
 2176 032f F5030000 		.4byte	.LASF77
 2177 0333 01       		.byte	0x1
 2178 0334 9F02     		.2byte	0x29f
 2179 0336 00000000 		.4byte	.LFB3
 2180 033a 68000000 		.4byte	.LFE3-.LFB3
 2181 033e 01       		.uleb128 0x1
 2182 033f 9C       		.byte	0x9c
 2183 0340 11       		.uleb128 0x11
 2184 0341 C5000000 		.4byte	.LASF51
 2185 0345 01       		.byte	0x1
 2186 0346 D902     		.2byte	0x2d9
 2187 0348 00000000 		.4byte	.LFB4
 2188 034c 04010000 		.4byte	.LFE4-.LFB4
 2189 0350 01       		.uleb128 0x1
 2190 0351 9C       		.byte	0x9c
 2191 0352 66030000 		.4byte	0x366
 2192 0356 14       		.uleb128 0x14
 2193 0357 FF040000 		.4byte	.LASF52
 2194 035b 01       		.byte	0x1
 2195 035c DB02     		.2byte	0x2db
 2196 035e 6B000000 		.4byte	0x6b
 2197 0362 02       		.uleb128 0x2
 2198 0363 91       		.byte	0x91
 2199 0364 77       		.sleb128 -9
 2200 0365 00       		.byte	0
 2201 0366 15       		.uleb128 0x15
 2202 0367 B3030000 		.4byte	.LASF54
 2203 036b 01       		.byte	0x1
ARM GAS  C:\Users\214016~1\AppData\Local\Temp\ccpUOjiz.s 			page 84


 2204 036c 5103     		.2byte	0x351
 2205 036e 6B000000 		.4byte	0x6b
 2206 0372 00000000 		.4byte	.LFB5
 2207 0376 38000000 		.4byte	.LFE5-.LFB5
 2208 037a 01       		.uleb128 0x1
 2209 037b 9C       		.byte	0x9c
 2210 037c 90030000 		.4byte	0x390
 2211 0380 14       		.uleb128 0x14
 2212 0381 1B020000 		.4byte	.LASF53
 2213 0385 01       		.byte	0x1
 2214 0386 5303     		.2byte	0x353
 2215 0388 6B000000 		.4byte	0x6b
 2216 038c 02       		.uleb128 0x2
 2217 038d 91       		.byte	0x91
 2218 038e 77       		.sleb128 -9
 2219 038f 00       		.byte	0
 2220 0390 16       		.uleb128 0x16
 2221 0391 87030000 		.4byte	.LASF75
 2222 0395 01       		.byte	0x1
 2223 0396 6803     		.2byte	0x368
 2224 0398 6B000000 		.4byte	0x6b
 2225 039c 00000000 		.4byte	.LFB6
 2226 03a0 18000000 		.4byte	.LFE6-.LFB6
 2227 03a4 01       		.uleb128 0x1
 2228 03a5 9C       		.byte	0x9c
 2229 03a6 15       		.uleb128 0x15
 2230 03a7 30040000 		.4byte	.LASF55
 2231 03ab 01       		.byte	0x1
 2232 03ac 8203     		.2byte	0x382
 2233 03ae 6B000000 		.4byte	0x6b
 2234 03b2 00000000 		.4byte	.LFB7
 2235 03b6 34000000 		.4byte	.LFE7-.LFB7
 2236 03ba 01       		.uleb128 0x1
 2237 03bb 9C       		.byte	0x9c
 2238 03bc D0030000 		.4byte	0x3d0
 2239 03c0 17       		.uleb128 0x17
 2240 03c1 72657300 		.ascii	"res\000"
 2241 03c5 01       		.byte	0x1
 2242 03c6 8403     		.2byte	0x384
 2243 03c8 6B000000 		.4byte	0x6b
 2244 03cc 02       		.uleb128 0x2
 2245 03cd 91       		.byte	0x91
 2246 03ce 77       		.sleb128 -9
 2247 03cf 00       		.byte	0
 2248 03d0 15       		.uleb128 0x15
 2249 03d1 D3030000 		.4byte	.LASF56
 2250 03d5 01       		.byte	0x1
 2251 03d6 9F03     		.2byte	0x39f
 2252 03d8 6B000000 		.4byte	0x6b
 2253 03dc 00000000 		.4byte	.LFB8
 2254 03e0 24000000 		.4byte	.LFE8-.LFB8
 2255 03e4 01       		.uleb128 0x1
 2256 03e5 9C       		.byte	0x9c
 2257 03e6 FA030000 		.4byte	0x3fa
 2258 03ea 12       		.uleb128 0x12
 2259 03eb CE040000 		.4byte	.LASF57
 2260 03ef 01       		.byte	0x1
ARM GAS  C:\Users\214016~1\AppData\Local\Temp\ccpUOjiz.s 			page 85


 2261 03f0 9F03     		.2byte	0x39f
 2262 03f2 6B000000 		.4byte	0x6b
 2263 03f6 02       		.uleb128 0x2
 2264 03f7 91       		.byte	0x91
 2265 03f8 77       		.sleb128 -9
 2266 03f9 00       		.byte	0
 2267 03fa 15       		.uleb128 0x15
 2268 03fb DE040000 		.4byte	.LASF58
 2269 03ff 01       		.byte	0x1
 2270 0400 BF03     		.2byte	0x3bf
 2271 0402 6B000000 		.4byte	0x6b
 2272 0406 00000000 		.4byte	.LFB9
 2273 040a 2C000000 		.4byte	.LFE9-.LFB9
 2274 040e 01       		.uleb128 0x1
 2275 040f 9C       		.byte	0x9c
 2276 0410 24040000 		.4byte	0x424
 2277 0414 12       		.uleb128 0x12
 2278 0415 BC000000 		.4byte	.LASF59
 2279 0419 01       		.byte	0x1
 2280 041a BF03     		.2byte	0x3bf
 2281 041c 6B000000 		.4byte	0x6b
 2282 0420 02       		.uleb128 0x2
 2283 0421 91       		.byte	0x91
 2284 0422 77       		.sleb128 -9
 2285 0423 00       		.byte	0
 2286 0424 15       		.uleb128 0x15
 2287 0425 1D050000 		.4byte	.LASF60
 2288 0429 01       		.byte	0x1
 2289 042a D603     		.2byte	0x3d6
 2290 042c 77000000 		.4byte	0x77
 2291 0430 00000000 		.4byte	.LFB10
 2292 0434 60000000 		.4byte	.LFE10-.LFB10
 2293 0438 01       		.uleb128 0x1
 2294 0439 9C       		.byte	0x9c
 2295 043a 5D040000 		.4byte	0x45d
 2296 043e 12       		.uleb128 0x12
 2297 043f BC000000 		.4byte	.LASF59
 2298 0443 01       		.byte	0x1
 2299 0444 D603     		.2byte	0x3d6
 2300 0446 6B000000 		.4byte	0x6b
 2301 044a 02       		.uleb128 0x2
 2302 044b 91       		.byte	0x91
 2303 044c 6F       		.sleb128 -17
 2304 044d 14       		.uleb128 0x14
 2305 044e 0E010000 		.4byte	.LASF61
 2306 0452 01       		.byte	0x1
 2307 0453 D803     		.2byte	0x3d8
 2308 0455 77000000 		.4byte	0x77
 2309 0459 02       		.uleb128 0x2
 2310 045a 91       		.byte	0x91
 2311 045b 76       		.sleb128 -10
 2312 045c 00       		.byte	0
 2313 045d 18       		.uleb128 0x18
 2314 045e 3C030000 		.4byte	.LASF62
 2315 0462 01       		.byte	0x1
 2316 0463 3E05     		.2byte	0x53e
 2317 0465 00000000 		.4byte	.LFB11
ARM GAS  C:\Users\214016~1\AppData\Local\Temp\ccpUOjiz.s 			page 86


 2318 0469 F8000000 		.4byte	.LFE11-.LFB11
 2319 046d 01       		.uleb128 0x1
 2320 046e 9C       		.byte	0x9c
 2321 046f B8040000 		.4byte	0x4b8
 2322 0473 12       		.uleb128 0x12
 2323 0474 BC000000 		.4byte	.LASF59
 2324 0478 01       		.byte	0x1
 2325 0479 3E05     		.2byte	0x53e
 2326 047b 6B000000 		.4byte	0x6b
 2327 047f 02       		.uleb128 0x2
 2328 0480 91       		.byte	0x91
 2329 0481 67       		.sleb128 -25
 2330 0482 12       		.uleb128 0x12
 2331 0483 95010000 		.4byte	.LASF63
 2332 0487 01       		.byte	0x1
 2333 0488 3E05     		.2byte	0x53e
 2334 048a B8040000 		.4byte	0x4b8
 2335 048e 02       		.uleb128 0x2
 2336 048f 91       		.byte	0x91
 2337 0490 60       		.sleb128 -32
 2338 0491 12       		.uleb128 0x12
 2339 0492 5C040000 		.4byte	.LASF64
 2340 0496 01       		.byte	0x1
 2341 0497 3E05     		.2byte	0x53e
 2342 0499 77000000 		.4byte	0x77
 2343 049d 02       		.uleb128 0x2
 2344 049e 91       		.byte	0x91
 2345 049f 64       		.sleb128 -28
 2346 04a0 19       		.uleb128 0x19
 2347 04a1 8E000000 		.4byte	.LBB2
 2348 04a5 28000000 		.4byte	.LBE2-.LBB2
 2349 04a9 17       		.uleb128 0x17
 2350 04aa 6900     		.ascii	"i\000"
 2351 04ac 01       		.byte	0x1
 2352 04ad 5305     		.2byte	0x553
 2353 04af 77000000 		.4byte	0x77
 2354 04b3 02       		.uleb128 0x2
 2355 04b4 91       		.byte	0x91
 2356 04b5 6E       		.sleb128 -18
 2357 04b6 00       		.byte	0
 2358 04b7 00       		.byte	0
 2359 04b8 1A       		.uleb128 0x1a
 2360 04b9 04       		.byte	0x4
 2361 04ba BE040000 		.4byte	0x4be
 2362 04be 1B       		.uleb128 0x1b
 2363 04bf 6B000000 		.4byte	0x6b
 2364 04c3 1C       		.uleb128 0x1c
 2365 04c4 15040000 		.4byte	.LASF65
 2366 04c8 01       		.byte	0x1
 2367 04c9 7506     		.2byte	0x675
 2368 04cb 77000000 		.4byte	0x77
 2369 04cf 00000000 		.4byte	.LFB12
 2370 04d3 8C000000 		.4byte	.LFE12-.LFB12
 2371 04d7 01       		.uleb128 0x1
 2372 04d8 9C       		.byte	0x9c
 2373 04d9 22050000 		.4byte	0x522
 2374 04dd 12       		.uleb128 0x12
ARM GAS  C:\Users\214016~1\AppData\Local\Temp\ccpUOjiz.s 			page 87


 2375 04de BC000000 		.4byte	.LASF59
 2376 04e2 01       		.byte	0x1
 2377 04e3 7506     		.2byte	0x675
 2378 04e5 6B000000 		.4byte	0x6b
 2379 04e9 02       		.uleb128 0x2
 2380 04ea 91       		.byte	0x91
 2381 04eb 6F       		.sleb128 -17
 2382 04ec 12       		.uleb128 0x12
 2383 04ed 95010000 		.4byte	.LASF63
 2384 04f1 01       		.byte	0x1
 2385 04f2 7506     		.2byte	0x675
 2386 04f4 22050000 		.4byte	0x522
 2387 04f8 02       		.uleb128 0x2
 2388 04f9 91       		.byte	0x91
 2389 04fa 68       		.sleb128 -24
 2390 04fb 12       		.uleb128 0x12
 2391 04fc 5C040000 		.4byte	.LASF64
 2392 0500 01       		.byte	0x1
 2393 0501 7506     		.2byte	0x675
 2394 0503 77000000 		.4byte	0x77
 2395 0507 02       		.uleb128 0x2
 2396 0508 91       		.byte	0x91
 2397 0509 6C       		.sleb128 -20
 2398 050a 19       		.uleb128 0x19
 2399 050b 44000000 		.4byte	.LBB3
 2400 050f 2A000000 		.4byte	.LBE3-.LBB3
 2401 0513 17       		.uleb128 0x17
 2402 0514 6900     		.ascii	"i\000"
 2403 0516 01       		.byte	0x1
 2404 0517 8206     		.2byte	0x682
 2405 0519 77000000 		.4byte	0x77
 2406 051d 02       		.uleb128 0x2
 2407 051e 91       		.byte	0x91
 2408 051f 76       		.sleb128 -10
 2409 0520 00       		.byte	0
 2410 0521 00       		.byte	0
 2411 0522 1A       		.uleb128 0x1a
 2412 0523 04       		.byte	0x4
 2413 0524 6B000000 		.4byte	0x6b
 2414 0528 18       		.uleb128 0x18
 2415 0529 EF000000 		.4byte	.LASF66
 2416 052d 01       		.byte	0x1
 2417 052e E408     		.2byte	0x8e4
 2418 0530 00000000 		.4byte	.LFB13
 2419 0534 54000000 		.4byte	.LFE13-.LFB13
 2420 0538 01       		.uleb128 0x1
 2421 0539 9C       		.byte	0x9c
 2422 053a 4E050000 		.4byte	0x54e
 2423 053e 12       		.uleb128 0x12
 2424 053f BC000000 		.4byte	.LASF59
 2425 0543 01       		.byte	0x1
 2426 0544 E408     		.2byte	0x8e4
 2427 0546 6B000000 		.4byte	0x6b
 2428 054a 02       		.uleb128 0x2
 2429 054b 91       		.byte	0x91
 2430 054c 77       		.sleb128 -9
 2431 054d 00       		.byte	0
ARM GAS  C:\Users\214016~1\AppData\Local\Temp\ccpUOjiz.s 			page 88


 2432 054e 18       		.uleb128 0x18
 2433 054f 19000000 		.4byte	.LASF67
 2434 0553 01       		.byte	0x1
 2435 0554 FC08     		.2byte	0x8fc
 2436 0556 00000000 		.4byte	.LFB14
 2437 055a 30000000 		.4byte	.LFE14-.LFB14
 2438 055e 01       		.uleb128 0x1
 2439 055f 9C       		.byte	0x9c
 2440 0560 74050000 		.4byte	0x574
 2441 0564 12       		.uleb128 0x12
 2442 0565 BC000000 		.4byte	.LASF59
 2443 0569 01       		.byte	0x1
 2444 056a FC08     		.2byte	0x8fc
 2445 056c 6B000000 		.4byte	0x6b
 2446 0570 02       		.uleb128 0x2
 2447 0571 91       		.byte	0x91
 2448 0572 77       		.sleb128 -9
 2449 0573 00       		.byte	0
 2450 0574 18       		.uleb128 0x18
 2451 0575 4B040000 		.4byte	.LASF68
 2452 0579 01       		.byte	0x1
 2453 057a 1A09     		.2byte	0x91a
 2454 057c 00000000 		.4byte	.LFB15
 2455 0580 20000000 		.4byte	.LFE15-.LFB15
 2456 0584 01       		.uleb128 0x1
 2457 0585 9C       		.byte	0x9c
 2458 0586 9A050000 		.4byte	0x59a
 2459 058a 12       		.uleb128 0x12
 2460 058b 55040000 		.4byte	.LASF69
 2461 058f 01       		.byte	0x1
 2462 0590 1A09     		.2byte	0x91a
 2463 0592 6B000000 		.4byte	0x6b
 2464 0596 02       		.uleb128 0x2
 2465 0597 91       		.byte	0x91
 2466 0598 77       		.sleb128 -9
 2467 0599 00       		.byte	0
 2468 059a 15       		.uleb128 0x15
 2469 059b AB010000 		.4byte	.LASF70
 2470 059f 01       		.byte	0x1
 2471 05a0 3309     		.2byte	0x933
 2472 05a2 6B000000 		.4byte	0x6b
 2473 05a6 00000000 		.4byte	.LFB16
 2474 05aa 40000000 		.4byte	.LFE16-.LFB16
 2475 05ae 01       		.uleb128 0x1
 2476 05af 9C       		.byte	0x9c
 2477 05b0 D2050000 		.4byte	0x5d2
 2478 05b4 12       		.uleb128 0x12
 2479 05b5 BC000000 		.4byte	.LASF59
 2480 05b9 01       		.byte	0x1
 2481 05ba 3309     		.2byte	0x933
 2482 05bc 6B000000 		.4byte	0x6b
 2483 05c0 02       		.uleb128 0x2
 2484 05c1 91       		.byte	0x91
 2485 05c2 6F       		.sleb128 -17
 2486 05c3 17       		.uleb128 0x17
 2487 05c4 637200   		.ascii	"cr\000"
 2488 05c7 01       		.byte	0x1
ARM GAS  C:\Users\214016~1\AppData\Local\Temp\ccpUOjiz.s 			page 89


 2489 05c8 3509     		.2byte	0x935
 2490 05ca 6B000000 		.4byte	0x6b
 2491 05ce 02       		.uleb128 0x2
 2492 05cf 91       		.byte	0x91
 2493 05d0 77       		.sleb128 -9
 2494 05d1 00       		.byte	0
 2495 05d2 18       		.uleb128 0x18
 2496 05d3 88020000 		.4byte	.LASF71
 2497 05d7 01       		.byte	0x1
 2498 05d8 5C09     		.2byte	0x95c
 2499 05da 00000000 		.4byte	.LFB17
 2500 05de 40000000 		.4byte	.LFE17-.LFB17
 2501 05e2 01       		.uleb128 0x1
 2502 05e3 9C       		.byte	0x9c
 2503 05e4 F8050000 		.4byte	0x5f8
 2504 05e8 12       		.uleb128 0x12
 2505 05e9 69010000 		.4byte	.LASF72
 2506 05ed 01       		.byte	0x1
 2507 05ee 5C09     		.2byte	0x95c
 2508 05f0 6B000000 		.4byte	0x6b
 2509 05f4 02       		.uleb128 0x2
 2510 05f5 91       		.byte	0x91
 2511 05f6 77       		.sleb128 -9
 2512 05f7 00       		.byte	0
 2513 05f8 15       		.uleb128 0x15
 2514 05f9 FF000000 		.4byte	.LASF73
 2515 05fd 01       		.byte	0x1
 2516 05fe 9509     		.2byte	0x995
 2517 0600 6B000000 		.4byte	0x6b
 2518 0604 00000000 		.4byte	.LFB18
 2519 0608 30000000 		.4byte	.LFE18-.LFB18
 2520 060c 01       		.uleb128 0x1
 2521 060d 9C       		.byte	0x9c
 2522 060e 22060000 		.4byte	0x622
 2523 0612 14       		.uleb128 0x14
 2524 0613 45050000 		.4byte	.LASF74
 2525 0617 01       		.byte	0x1
 2526 0618 9709     		.2byte	0x997
 2527 061a 6B000000 		.4byte	0x6b
 2528 061e 02       		.uleb128 0x2
 2529 061f 91       		.byte	0x91
 2530 0620 77       		.sleb128 -9
 2531 0621 00       		.byte	0
 2532 0622 16       		.uleb128 0x16
 2533 0623 1C010000 		.4byte	.LASF76
 2534 0627 01       		.byte	0x1
 2535 0628 AD09     		.2byte	0x9ad
 2536 062a 6B000000 		.4byte	0x6b
 2537 062e 00000000 		.4byte	.LFB19
 2538 0632 20000000 		.4byte	.LFE19-.LFB19
 2539 0636 01       		.uleb128 0x1
 2540 0637 9C       		.byte	0x9c
 2541 0638 13       		.uleb128 0x13
 2542 0639 AB000000 		.4byte	.LASF78
 2543 063d 01       		.byte	0x1
 2544 063e BB09     		.2byte	0x9bb
 2545 0640 00000000 		.4byte	.LFB20
ARM GAS  C:\Users\214016~1\AppData\Local\Temp\ccpUOjiz.s 			page 90


 2546 0644 18000000 		.4byte	.LFE20-.LFB20
 2547 0648 01       		.uleb128 0x1
 2548 0649 9C       		.byte	0x9c
 2549 064a 13       		.uleb128 0x13
 2550 064b DC010000 		.4byte	.LASF79
 2551 064f 01       		.byte	0x1
 2552 0650 D109     		.2byte	0x9d1
 2553 0652 00000000 		.4byte	.LFB21
 2554 0656 18000000 		.4byte	.LFE21-.LFB21
 2555 065a 01       		.uleb128 0x1
 2556 065b 9C       		.byte	0x9c
 2557 065c 1D       		.uleb128 0x1d
 2558 065d 09040000 		.4byte	.LASF80
 2559 0661 01       		.byte	0x1
 2560 0662 28       		.byte	0x28
 2561 0663 6B000000 		.4byte	0x6b
 2562 0667 05       		.uleb128 0x5
 2563 0668 03       		.byte	0x3
 2564 0669 00000000 		.4byte	USB_initVar
 2565 066d 1E       		.uleb128 0x1e
 2566 066e 9B020000 		.4byte	.LASF81
 2567 0672 03       		.byte	0x3
 2568 0673 D302     		.2byte	0x2d3
 2569 0675 B0000000 		.4byte	0xb0
 2570 0679 1E       		.uleb128 0x1e
 2571 067a 4F000000 		.4byte	.LASF82
 2572 067e 03       		.byte	0x3
 2573 067f D402     		.2byte	0x2d4
 2574 0681 B0000000 		.4byte	0xb0
 2575 0685 1E       		.uleb128 0x1e
 2576 0686 2A000000 		.4byte	.LASF83
 2577 068a 03       		.byte	0x3
 2578 068b D502     		.2byte	0x2d5
 2579 068d B0000000 		.4byte	0xb0
 2580 0691 1E       		.uleb128 0x1e
 2581 0692 2C050000 		.4byte	.LASF84
 2582 0696 03       		.byte	0x3
 2583 0697 D602     		.2byte	0x2d6
 2584 0699 B0000000 		.4byte	0xb0
 2585 069d 1E       		.uleb128 0x1e
 2586 069e 28020000 		.4byte	.LASF85
 2587 06a2 03       		.byte	0x3
 2588 06a3 D702     		.2byte	0x2d7
 2589 06a5 B0000000 		.4byte	0xb0
 2590 06a9 1F       		.uleb128 0x1f
 2591 06aa 81010000 		.4byte	.LASF86
 2592 06ae 04       		.byte	0x4
 2593 06af 72       		.byte	0x72
 2594 06b0 B0000000 		.4byte	0xb0
 2595 06b4 0A       		.uleb128 0xa
 2596 06b5 6B000000 		.4byte	0x6b
 2597 06b9 C4060000 		.4byte	0x6c4
 2598 06bd 0B       		.uleb128 0xb
 2599 06be C6000000 		.4byte	0xc6
 2600 06c2 01       		.byte	0x1
 2601 06c3 00       		.byte	0
 2602 06c4 1F       		.uleb128 0x1f
ARM GAS  C:\Users\214016~1\AppData\Local\Temp\ccpUOjiz.s 			page 91


 2603 06c5 83000000 		.4byte	.LASF87
 2604 06c9 04       		.byte	0x4
 2605 06ca 73       		.byte	0x73
 2606 06cb CF060000 		.4byte	0x6cf
 2607 06cf 05       		.uleb128 0x5
 2608 06d0 B4060000 		.4byte	0x6b4
 2609 06d4 1F       		.uleb128 0x1f
 2610 06d5 75030000 		.4byte	.LASF88
 2611 06d9 04       		.byte	0x4
 2612 06da 75       		.byte	0x75
 2613 06db B0000000 		.4byte	0xb0
 2614 06df 0A       		.uleb128 0xa
 2615 06e0 42010000 		.4byte	0x142
 2616 06e4 EF060000 		.4byte	0x6ef
 2617 06e8 0B       		.uleb128 0xb
 2618 06e9 C6000000 		.4byte	0xc6
 2619 06ed 08       		.byte	0x8
 2620 06ee 00       		.byte	0
 2621 06ef 1F       		.uleb128 0x1f
 2622 06f0 57030000 		.4byte	.LASF89
 2623 06f4 04       		.byte	0x4
 2624 06f5 79       		.byte	0x79
 2625 06f6 FA060000 		.4byte	0x6fa
 2626 06fa 05       		.uleb128 0x5
 2627 06fb DF060000 		.4byte	0x6df
 2628 06ff 1F       		.uleb128 0x1f
 2629 0700 3C000000 		.4byte	.LASF90
 2630 0704 04       		.byte	0x4
 2631 0705 9B       		.byte	0x9b
 2632 0706 B0000000 		.4byte	0xb0
 2633 070a 00       		.byte	0
 2634              		.section	.debug_abbrev,"",%progbits
 2635              	.Ldebug_abbrev0:
 2636 0000 01       		.uleb128 0x1
 2637 0001 11       		.uleb128 0x11
 2638 0002 01       		.byte	0x1
 2639 0003 25       		.uleb128 0x25
 2640 0004 0E       		.uleb128 0xe
 2641 0005 13       		.uleb128 0x13
 2642 0006 0B       		.uleb128 0xb
 2643 0007 03       		.uleb128 0x3
 2644 0008 0E       		.uleb128 0xe
 2645 0009 1B       		.uleb128 0x1b
 2646 000a 0E       		.uleb128 0xe
 2647 000b 55       		.uleb128 0x55
 2648 000c 17       		.uleb128 0x17
 2649 000d 11       		.uleb128 0x11
 2650 000e 01       		.uleb128 0x1
 2651 000f 10       		.uleb128 0x10
 2652 0010 17       		.uleb128 0x17
 2653 0011 00       		.byte	0
 2654 0012 00       		.byte	0
 2655 0013 02       		.uleb128 0x2
 2656 0014 24       		.uleb128 0x24
 2657 0015 00       		.byte	0
 2658 0016 0B       		.uleb128 0xb
 2659 0017 0B       		.uleb128 0xb
ARM GAS  C:\Users\214016~1\AppData\Local\Temp\ccpUOjiz.s 			page 92


 2660 0018 3E       		.uleb128 0x3e
 2661 0019 0B       		.uleb128 0xb
 2662 001a 03       		.uleb128 0x3
 2663 001b 0E       		.uleb128 0xe
 2664 001c 00       		.byte	0
 2665 001d 00       		.byte	0
 2666 001e 03       		.uleb128 0x3
 2667 001f 24       		.uleb128 0x24
 2668 0020 00       		.byte	0
 2669 0021 0B       		.uleb128 0xb
 2670 0022 0B       		.uleb128 0xb
 2671 0023 3E       		.uleb128 0x3e
 2672 0024 0B       		.uleb128 0xb
 2673 0025 03       		.uleb128 0x3
 2674 0026 08       		.uleb128 0x8
 2675 0027 00       		.byte	0
 2676 0028 00       		.byte	0
 2677 0029 04       		.uleb128 0x4
 2678 002a 16       		.uleb128 0x16
 2679 002b 00       		.byte	0
 2680 002c 03       		.uleb128 0x3
 2681 002d 0E       		.uleb128 0xe
 2682 002e 3A       		.uleb128 0x3a
 2683 002f 0B       		.uleb128 0xb
 2684 0030 3B       		.uleb128 0x3b
 2685 0031 05       		.uleb128 0x5
 2686 0032 49       		.uleb128 0x49
 2687 0033 13       		.uleb128 0x13
 2688 0034 00       		.byte	0
 2689 0035 00       		.byte	0
 2690 0036 05       		.uleb128 0x5
 2691 0037 35       		.uleb128 0x35
 2692 0038 00       		.byte	0
 2693 0039 49       		.uleb128 0x49
 2694 003a 13       		.uleb128 0x13
 2695 003b 00       		.byte	0
 2696 003c 00       		.byte	0
 2697 003d 06       		.uleb128 0x6
 2698 003e 13       		.uleb128 0x13
 2699 003f 01       		.byte	0x1
 2700 0040 0B       		.uleb128 0xb
 2701 0041 0B       		.uleb128 0xb
 2702 0042 3A       		.uleb128 0x3a
 2703 0043 0B       		.uleb128 0xb
 2704 0044 3B       		.uleb128 0x3b
 2705 0045 0B       		.uleb128 0xb
 2706 0046 01       		.uleb128 0x1
 2707 0047 13       		.uleb128 0x13
 2708 0048 00       		.byte	0
 2709 0049 00       		.byte	0
 2710 004a 07       		.uleb128 0x7
 2711 004b 0D       		.uleb128 0xd
 2712 004c 00       		.byte	0
 2713 004d 03       		.uleb128 0x3
 2714 004e 0E       		.uleb128 0xe
 2715 004f 3A       		.uleb128 0x3a
 2716 0050 0B       		.uleb128 0xb
ARM GAS  C:\Users\214016~1\AppData\Local\Temp\ccpUOjiz.s 			page 93


 2717 0051 3B       		.uleb128 0x3b
 2718 0052 0B       		.uleb128 0xb
 2719 0053 49       		.uleb128 0x49
 2720 0054 13       		.uleb128 0x13
 2721 0055 38       		.uleb128 0x38
 2722 0056 0B       		.uleb128 0xb
 2723 0057 00       		.byte	0
 2724 0058 00       		.byte	0
 2725 0059 08       		.uleb128 0x8
 2726 005a 16       		.uleb128 0x16
 2727 005b 00       		.byte	0
 2728 005c 03       		.uleb128 0x3
 2729 005d 0E       		.uleb128 0xe
 2730 005e 3A       		.uleb128 0x3a
 2731 005f 0B       		.uleb128 0xb
 2732 0060 3B       		.uleb128 0x3b
 2733 0061 0B       		.uleb128 0xb
 2734 0062 49       		.uleb128 0x49
 2735 0063 13       		.uleb128 0x13
 2736 0064 00       		.byte	0
 2737 0065 00       		.byte	0
 2738 0066 09       		.uleb128 0x9
 2739 0067 0D       		.uleb128 0xd
 2740 0068 00       		.byte	0
 2741 0069 03       		.uleb128 0x3
 2742 006a 08       		.uleb128 0x8
 2743 006b 3A       		.uleb128 0x3a
 2744 006c 0B       		.uleb128 0xb
 2745 006d 3B       		.uleb128 0x3b
 2746 006e 0B       		.uleb128 0xb
 2747 006f 49       		.uleb128 0x49
 2748 0070 13       		.uleb128 0x13
 2749 0071 38       		.uleb128 0x38
 2750 0072 0B       		.uleb128 0xb
 2751 0073 00       		.byte	0
 2752 0074 00       		.byte	0
 2753 0075 0A       		.uleb128 0xa
 2754 0076 01       		.uleb128 0x1
 2755 0077 01       		.byte	0x1
 2756 0078 49       		.uleb128 0x49
 2757 0079 13       		.uleb128 0x13
 2758 007a 01       		.uleb128 0x1
 2759 007b 13       		.uleb128 0x13
 2760 007c 00       		.byte	0
 2761 007d 00       		.byte	0
 2762 007e 0B       		.uleb128 0xb
 2763 007f 21       		.uleb128 0x21
 2764 0080 00       		.byte	0
 2765 0081 49       		.uleb128 0x49
 2766 0082 13       		.uleb128 0x13
 2767 0083 2F       		.uleb128 0x2f
 2768 0084 0B       		.uleb128 0xb
 2769 0085 00       		.byte	0
 2770 0086 00       		.byte	0
 2771 0087 0C       		.uleb128 0xc
 2772 0088 13       		.uleb128 0x13
 2773 0089 01       		.byte	0x1
ARM GAS  C:\Users\214016~1\AppData\Local\Temp\ccpUOjiz.s 			page 94


 2774 008a 0B       		.uleb128 0xb
 2775 008b 0B       		.uleb128 0xb
 2776 008c 3A       		.uleb128 0x3a
 2777 008d 0B       		.uleb128 0xb
 2778 008e 3B       		.uleb128 0x3b
 2779 008f 05       		.uleb128 0x5
 2780 0090 01       		.uleb128 0x1
 2781 0091 13       		.uleb128 0x13
 2782 0092 00       		.byte	0
 2783 0093 00       		.byte	0
 2784 0094 0D       		.uleb128 0xd
 2785 0095 0D       		.uleb128 0xd
 2786 0096 00       		.byte	0
 2787 0097 03       		.uleb128 0x3
 2788 0098 0E       		.uleb128 0xe
 2789 0099 3A       		.uleb128 0x3a
 2790 009a 0B       		.uleb128 0xb
 2791 009b 3B       		.uleb128 0x3b
 2792 009c 05       		.uleb128 0x5
 2793 009d 49       		.uleb128 0x49
 2794 009e 13       		.uleb128 0x13
 2795 009f 38       		.uleb128 0x38
 2796 00a0 0B       		.uleb128 0xb
 2797 00a1 00       		.byte	0
 2798 00a2 00       		.byte	0
 2799 00a3 0E       		.uleb128 0xe
 2800 00a4 2E       		.uleb128 0x2e
 2801 00a5 01       		.byte	0x1
 2802 00a6 3F       		.uleb128 0x3f
 2803 00a7 19       		.uleb128 0x19
 2804 00a8 03       		.uleb128 0x3
 2805 00a9 0E       		.uleb128 0xe
 2806 00aa 3A       		.uleb128 0x3a
 2807 00ab 0B       		.uleb128 0xb
 2808 00ac 3B       		.uleb128 0x3b
 2809 00ad 0B       		.uleb128 0xb
 2810 00ae 27       		.uleb128 0x27
 2811 00af 19       		.uleb128 0x19
 2812 00b0 11       		.uleb128 0x11
 2813 00b1 01       		.uleb128 0x1
 2814 00b2 12       		.uleb128 0x12
 2815 00b3 06       		.uleb128 0x6
 2816 00b4 40       		.uleb128 0x40
 2817 00b5 18       		.uleb128 0x18
 2818 00b6 9642     		.uleb128 0x2116
 2819 00b8 19       		.uleb128 0x19
 2820 00b9 01       		.uleb128 0x1
 2821 00ba 13       		.uleb128 0x13
 2822 00bb 00       		.byte	0
 2823 00bc 00       		.byte	0
 2824 00bd 0F       		.uleb128 0xf
 2825 00be 05       		.uleb128 0x5
 2826 00bf 00       		.byte	0
 2827 00c0 03       		.uleb128 0x3
 2828 00c1 0E       		.uleb128 0xe
 2829 00c2 3A       		.uleb128 0x3a
 2830 00c3 0B       		.uleb128 0xb
ARM GAS  C:\Users\214016~1\AppData\Local\Temp\ccpUOjiz.s 			page 95


 2831 00c4 3B       		.uleb128 0x3b
 2832 00c5 0B       		.uleb128 0xb
 2833 00c6 49       		.uleb128 0x49
 2834 00c7 13       		.uleb128 0x13
 2835 00c8 02       		.uleb128 0x2
 2836 00c9 18       		.uleb128 0x18
 2837 00ca 00       		.byte	0
 2838 00cb 00       		.byte	0
 2839 00cc 10       		.uleb128 0x10
 2840 00cd 34       		.uleb128 0x34
 2841 00ce 00       		.byte	0
 2842 00cf 03       		.uleb128 0x3
 2843 00d0 0E       		.uleb128 0xe
 2844 00d1 3A       		.uleb128 0x3a
 2845 00d2 0B       		.uleb128 0xb
 2846 00d3 3B       		.uleb128 0x3b
 2847 00d4 0B       		.uleb128 0xb
 2848 00d5 49       		.uleb128 0x49
 2849 00d6 13       		.uleb128 0x13
 2850 00d7 02       		.uleb128 0x2
 2851 00d8 18       		.uleb128 0x18
 2852 00d9 00       		.byte	0
 2853 00da 00       		.byte	0
 2854 00db 11       		.uleb128 0x11
 2855 00dc 2E       		.uleb128 0x2e
 2856 00dd 01       		.byte	0x1
 2857 00de 3F       		.uleb128 0x3f
 2858 00df 19       		.uleb128 0x19
 2859 00e0 03       		.uleb128 0x3
 2860 00e1 0E       		.uleb128 0xe
 2861 00e2 3A       		.uleb128 0x3a
 2862 00e3 0B       		.uleb128 0xb
 2863 00e4 3B       		.uleb128 0x3b
 2864 00e5 05       		.uleb128 0x5
 2865 00e6 27       		.uleb128 0x27
 2866 00e7 19       		.uleb128 0x19
 2867 00e8 11       		.uleb128 0x11
 2868 00e9 01       		.uleb128 0x1
 2869 00ea 12       		.uleb128 0x12
 2870 00eb 06       		.uleb128 0x6
 2871 00ec 40       		.uleb128 0x40
 2872 00ed 18       		.uleb128 0x18
 2873 00ee 9642     		.uleb128 0x2116
 2874 00f0 19       		.uleb128 0x19
 2875 00f1 01       		.uleb128 0x1
 2876 00f2 13       		.uleb128 0x13
 2877 00f3 00       		.byte	0
 2878 00f4 00       		.byte	0
 2879 00f5 12       		.uleb128 0x12
 2880 00f6 05       		.uleb128 0x5
 2881 00f7 00       		.byte	0
 2882 00f8 03       		.uleb128 0x3
 2883 00f9 0E       		.uleb128 0xe
 2884 00fa 3A       		.uleb128 0x3a
 2885 00fb 0B       		.uleb128 0xb
 2886 00fc 3B       		.uleb128 0x3b
 2887 00fd 05       		.uleb128 0x5
ARM GAS  C:\Users\214016~1\AppData\Local\Temp\ccpUOjiz.s 			page 96


 2888 00fe 49       		.uleb128 0x49
 2889 00ff 13       		.uleb128 0x13
 2890 0100 02       		.uleb128 0x2
 2891 0101 18       		.uleb128 0x18
 2892 0102 00       		.byte	0
 2893 0103 00       		.byte	0
 2894 0104 13       		.uleb128 0x13
 2895 0105 2E       		.uleb128 0x2e
 2896 0106 00       		.byte	0
 2897 0107 3F       		.uleb128 0x3f
 2898 0108 19       		.uleb128 0x19
 2899 0109 03       		.uleb128 0x3
 2900 010a 0E       		.uleb128 0xe
 2901 010b 3A       		.uleb128 0x3a
 2902 010c 0B       		.uleb128 0xb
 2903 010d 3B       		.uleb128 0x3b
 2904 010e 05       		.uleb128 0x5
 2905 010f 27       		.uleb128 0x27
 2906 0110 19       		.uleb128 0x19
 2907 0111 11       		.uleb128 0x11
 2908 0112 01       		.uleb128 0x1
 2909 0113 12       		.uleb128 0x12
 2910 0114 06       		.uleb128 0x6
 2911 0115 40       		.uleb128 0x40
 2912 0116 18       		.uleb128 0x18
 2913 0117 9742     		.uleb128 0x2117
 2914 0119 19       		.uleb128 0x19
 2915 011a 00       		.byte	0
 2916 011b 00       		.byte	0
 2917 011c 14       		.uleb128 0x14
 2918 011d 34       		.uleb128 0x34
 2919 011e 00       		.byte	0
 2920 011f 03       		.uleb128 0x3
 2921 0120 0E       		.uleb128 0xe
 2922 0121 3A       		.uleb128 0x3a
 2923 0122 0B       		.uleb128 0xb
 2924 0123 3B       		.uleb128 0x3b
 2925 0124 05       		.uleb128 0x5
 2926 0125 49       		.uleb128 0x49
 2927 0126 13       		.uleb128 0x13
 2928 0127 02       		.uleb128 0x2
 2929 0128 18       		.uleb128 0x18
 2930 0129 00       		.byte	0
 2931 012a 00       		.byte	0
 2932 012b 15       		.uleb128 0x15
 2933 012c 2E       		.uleb128 0x2e
 2934 012d 01       		.byte	0x1
 2935 012e 3F       		.uleb128 0x3f
 2936 012f 19       		.uleb128 0x19
 2937 0130 03       		.uleb128 0x3
 2938 0131 0E       		.uleb128 0xe
 2939 0132 3A       		.uleb128 0x3a
 2940 0133 0B       		.uleb128 0xb
 2941 0134 3B       		.uleb128 0x3b
 2942 0135 05       		.uleb128 0x5
 2943 0136 27       		.uleb128 0x27
 2944 0137 19       		.uleb128 0x19
ARM GAS  C:\Users\214016~1\AppData\Local\Temp\ccpUOjiz.s 			page 97


 2945 0138 49       		.uleb128 0x49
 2946 0139 13       		.uleb128 0x13
 2947 013a 11       		.uleb128 0x11
 2948 013b 01       		.uleb128 0x1
 2949 013c 12       		.uleb128 0x12
 2950 013d 06       		.uleb128 0x6
 2951 013e 40       		.uleb128 0x40
 2952 013f 18       		.uleb128 0x18
 2953 0140 9742     		.uleb128 0x2117
 2954 0142 19       		.uleb128 0x19
 2955 0143 01       		.uleb128 0x1
 2956 0144 13       		.uleb128 0x13
 2957 0145 00       		.byte	0
 2958 0146 00       		.byte	0
 2959 0147 16       		.uleb128 0x16
 2960 0148 2E       		.uleb128 0x2e
 2961 0149 00       		.byte	0
 2962 014a 3F       		.uleb128 0x3f
 2963 014b 19       		.uleb128 0x19
 2964 014c 03       		.uleb128 0x3
 2965 014d 0E       		.uleb128 0xe
 2966 014e 3A       		.uleb128 0x3a
 2967 014f 0B       		.uleb128 0xb
 2968 0150 3B       		.uleb128 0x3b
 2969 0151 05       		.uleb128 0x5
 2970 0152 27       		.uleb128 0x27
 2971 0153 19       		.uleb128 0x19
 2972 0154 49       		.uleb128 0x49
 2973 0155 13       		.uleb128 0x13
 2974 0156 11       		.uleb128 0x11
 2975 0157 01       		.uleb128 0x1
 2976 0158 12       		.uleb128 0x12
 2977 0159 06       		.uleb128 0x6
 2978 015a 40       		.uleb128 0x40
 2979 015b 18       		.uleb128 0x18
 2980 015c 9742     		.uleb128 0x2117
 2981 015e 19       		.uleb128 0x19
 2982 015f 00       		.byte	0
 2983 0160 00       		.byte	0
 2984 0161 17       		.uleb128 0x17
 2985 0162 34       		.uleb128 0x34
 2986 0163 00       		.byte	0
 2987 0164 03       		.uleb128 0x3
 2988 0165 08       		.uleb128 0x8
 2989 0166 3A       		.uleb128 0x3a
 2990 0167 0B       		.uleb128 0xb
 2991 0168 3B       		.uleb128 0x3b
 2992 0169 05       		.uleb128 0x5
 2993 016a 49       		.uleb128 0x49
 2994 016b 13       		.uleb128 0x13
 2995 016c 02       		.uleb128 0x2
 2996 016d 18       		.uleb128 0x18
 2997 016e 00       		.byte	0
 2998 016f 00       		.byte	0
 2999 0170 18       		.uleb128 0x18
 3000 0171 2E       		.uleb128 0x2e
 3001 0172 01       		.byte	0x1
ARM GAS  C:\Users\214016~1\AppData\Local\Temp\ccpUOjiz.s 			page 98


 3002 0173 3F       		.uleb128 0x3f
 3003 0174 19       		.uleb128 0x19
 3004 0175 03       		.uleb128 0x3
 3005 0176 0E       		.uleb128 0xe
 3006 0177 3A       		.uleb128 0x3a
 3007 0178 0B       		.uleb128 0xb
 3008 0179 3B       		.uleb128 0x3b
 3009 017a 05       		.uleb128 0x5
 3010 017b 27       		.uleb128 0x27
 3011 017c 19       		.uleb128 0x19
 3012 017d 11       		.uleb128 0x11
 3013 017e 01       		.uleb128 0x1
 3014 017f 12       		.uleb128 0x12
 3015 0180 06       		.uleb128 0x6
 3016 0181 40       		.uleb128 0x40
 3017 0182 18       		.uleb128 0x18
 3018 0183 9742     		.uleb128 0x2117
 3019 0185 19       		.uleb128 0x19
 3020 0186 01       		.uleb128 0x1
 3021 0187 13       		.uleb128 0x13
 3022 0188 00       		.byte	0
 3023 0189 00       		.byte	0
 3024 018a 19       		.uleb128 0x19
 3025 018b 0B       		.uleb128 0xb
 3026 018c 01       		.byte	0x1
 3027 018d 11       		.uleb128 0x11
 3028 018e 01       		.uleb128 0x1
 3029 018f 12       		.uleb128 0x12
 3030 0190 06       		.uleb128 0x6
 3031 0191 00       		.byte	0
 3032 0192 00       		.byte	0
 3033 0193 1A       		.uleb128 0x1a
 3034 0194 0F       		.uleb128 0xf
 3035 0195 00       		.byte	0
 3036 0196 0B       		.uleb128 0xb
 3037 0197 0B       		.uleb128 0xb
 3038 0198 49       		.uleb128 0x49
 3039 0199 13       		.uleb128 0x13
 3040 019a 00       		.byte	0
 3041 019b 00       		.byte	0
 3042 019c 1B       		.uleb128 0x1b
 3043 019d 26       		.uleb128 0x26
 3044 019e 00       		.byte	0
 3045 019f 49       		.uleb128 0x49
 3046 01a0 13       		.uleb128 0x13
 3047 01a1 00       		.byte	0
 3048 01a2 00       		.byte	0
 3049 01a3 1C       		.uleb128 0x1c
 3050 01a4 2E       		.uleb128 0x2e
 3051 01a5 01       		.byte	0x1
 3052 01a6 3F       		.uleb128 0x3f
 3053 01a7 19       		.uleb128 0x19
 3054 01a8 03       		.uleb128 0x3
 3055 01a9 0E       		.uleb128 0xe
 3056 01aa 3A       		.uleb128 0x3a
 3057 01ab 0B       		.uleb128 0xb
 3058 01ac 3B       		.uleb128 0x3b
ARM GAS  C:\Users\214016~1\AppData\Local\Temp\ccpUOjiz.s 			page 99


 3059 01ad 05       		.uleb128 0x5
 3060 01ae 27       		.uleb128 0x27
 3061 01af 19       		.uleb128 0x19
 3062 01b0 49       		.uleb128 0x49
 3063 01b1 13       		.uleb128 0x13
 3064 01b2 11       		.uleb128 0x11
 3065 01b3 01       		.uleb128 0x1
 3066 01b4 12       		.uleb128 0x12
 3067 01b5 06       		.uleb128 0x6
 3068 01b6 40       		.uleb128 0x40
 3069 01b7 18       		.uleb128 0x18
 3070 01b8 9642     		.uleb128 0x2116
 3071 01ba 19       		.uleb128 0x19
 3072 01bb 01       		.uleb128 0x1
 3073 01bc 13       		.uleb128 0x13
 3074 01bd 00       		.byte	0
 3075 01be 00       		.byte	0
 3076 01bf 1D       		.uleb128 0x1d
 3077 01c0 34       		.uleb128 0x34
 3078 01c1 00       		.byte	0
 3079 01c2 03       		.uleb128 0x3
 3080 01c3 0E       		.uleb128 0xe
 3081 01c4 3A       		.uleb128 0x3a
 3082 01c5 0B       		.uleb128 0xb
 3083 01c6 3B       		.uleb128 0x3b
 3084 01c7 0B       		.uleb128 0xb
 3085 01c8 49       		.uleb128 0x49
 3086 01c9 13       		.uleb128 0x13
 3087 01ca 3F       		.uleb128 0x3f
 3088 01cb 19       		.uleb128 0x19
 3089 01cc 02       		.uleb128 0x2
 3090 01cd 18       		.uleb128 0x18
 3091 01ce 00       		.byte	0
 3092 01cf 00       		.byte	0
 3093 01d0 1E       		.uleb128 0x1e
 3094 01d1 34       		.uleb128 0x34
 3095 01d2 00       		.byte	0
 3096 01d3 03       		.uleb128 0x3
 3097 01d4 0E       		.uleb128 0xe
 3098 01d5 3A       		.uleb128 0x3a
 3099 01d6 0B       		.uleb128 0xb
 3100 01d7 3B       		.uleb128 0x3b
 3101 01d8 05       		.uleb128 0x5
 3102 01d9 49       		.uleb128 0x49
 3103 01da 13       		.uleb128 0x13
 3104 01db 3F       		.uleb128 0x3f
 3105 01dc 19       		.uleb128 0x19
 3106 01dd 3C       		.uleb128 0x3c
 3107 01de 19       		.uleb128 0x19
 3108 01df 00       		.byte	0
 3109 01e0 00       		.byte	0
 3110 01e1 1F       		.uleb128 0x1f
 3111 01e2 34       		.uleb128 0x34
 3112 01e3 00       		.byte	0
 3113 01e4 03       		.uleb128 0x3
 3114 01e5 0E       		.uleb128 0xe
 3115 01e6 3A       		.uleb128 0x3a
ARM GAS  C:\Users\214016~1\AppData\Local\Temp\ccpUOjiz.s 			page 100


 3116 01e7 0B       		.uleb128 0xb
 3117 01e8 3B       		.uleb128 0x3b
 3118 01e9 0B       		.uleb128 0xb
 3119 01ea 49       		.uleb128 0x49
 3120 01eb 13       		.uleb128 0x13
 3121 01ec 3F       		.uleb128 0x3f
 3122 01ed 19       		.uleb128 0x19
 3123 01ee 3C       		.uleb128 0x3c
 3124 01ef 19       		.uleb128 0x19
 3125 01f0 00       		.byte	0
 3126 01f1 00       		.byte	0
 3127 01f2 00       		.byte	0
 3128              		.section	.debug_aranges,"",%progbits
 3129 0000 C4000000 		.4byte	0xc4
 3130 0004 0200     		.2byte	0x2
 3131 0006 00000000 		.4byte	.Ldebug_info0
 3132 000a 04       		.byte	0x4
 3133 000b 00       		.byte	0
 3134 000c 0000     		.2byte	0
 3135 000e 0000     		.2byte	0
 3136 0010 00000000 		.4byte	.LFB0
 3137 0014 38000000 		.4byte	.LFE0-.LFB0
 3138 0018 00000000 		.4byte	.LFB1
 3139 001c 8C010000 		.4byte	.LFE1-.LFB1
 3140 0020 00000000 		.4byte	.LFB2
 3141 0024 F8000000 		.4byte	.LFE2-.LFB2
 3142 0028 00000000 		.4byte	.LFB3
 3143 002c 68000000 		.4byte	.LFE3-.LFB3
 3144 0030 00000000 		.4byte	.LFB4
 3145 0034 04010000 		.4byte	.LFE4-.LFB4
 3146 0038 00000000 		.4byte	.LFB5
 3147 003c 38000000 		.4byte	.LFE5-.LFB5
 3148 0040 00000000 		.4byte	.LFB6
 3149 0044 18000000 		.4byte	.LFE6-.LFB6
 3150 0048 00000000 		.4byte	.LFB7
 3151 004c 34000000 		.4byte	.LFE7-.LFB7
 3152 0050 00000000 		.4byte	.LFB8
 3153 0054 24000000 		.4byte	.LFE8-.LFB8
 3154 0058 00000000 		.4byte	.LFB9
 3155 005c 2C000000 		.4byte	.LFE9-.LFB9
 3156 0060 00000000 		.4byte	.LFB10
 3157 0064 60000000 		.4byte	.LFE10-.LFB10
 3158 0068 00000000 		.4byte	.LFB11
 3159 006c F8000000 		.4byte	.LFE11-.LFB11
 3160 0070 00000000 		.4byte	.LFB12
 3161 0074 8C000000 		.4byte	.LFE12-.LFB12
 3162 0078 00000000 		.4byte	.LFB13
 3163 007c 54000000 		.4byte	.LFE13-.LFB13
 3164 0080 00000000 		.4byte	.LFB14
 3165 0084 30000000 		.4byte	.LFE14-.LFB14
 3166 0088 00000000 		.4byte	.LFB15
 3167 008c 20000000 		.4byte	.LFE15-.LFB15
 3168 0090 00000000 		.4byte	.LFB16
 3169 0094 40000000 		.4byte	.LFE16-.LFB16
 3170 0098 00000000 		.4byte	.LFB17
 3171 009c 40000000 		.4byte	.LFE17-.LFB17
 3172 00a0 00000000 		.4byte	.LFB18
ARM GAS  C:\Users\214016~1\AppData\Local\Temp\ccpUOjiz.s 			page 101


 3173 00a4 30000000 		.4byte	.LFE18-.LFB18
 3174 00a8 00000000 		.4byte	.LFB19
 3175 00ac 20000000 		.4byte	.LFE19-.LFB19
 3176 00b0 00000000 		.4byte	.LFB20
 3177 00b4 18000000 		.4byte	.LFE20-.LFB20
 3178 00b8 00000000 		.4byte	.LFB21
 3179 00bc 18000000 		.4byte	.LFE21-.LFB21
 3180 00c0 00000000 		.4byte	0
 3181 00c4 00000000 		.4byte	0
 3182              		.section	.debug_ranges,"",%progbits
 3183              	.Ldebug_ranges0:
 3184 0000 00000000 		.4byte	.LFB0
 3185 0004 38000000 		.4byte	.LFE0
 3186 0008 00000000 		.4byte	.LFB1
 3187 000c 8C010000 		.4byte	.LFE1
 3188 0010 00000000 		.4byte	.LFB2
 3189 0014 F8000000 		.4byte	.LFE2
 3190 0018 00000000 		.4byte	.LFB3
 3191 001c 68000000 		.4byte	.LFE3
 3192 0020 00000000 		.4byte	.LFB4
 3193 0024 04010000 		.4byte	.LFE4
 3194 0028 00000000 		.4byte	.LFB5
 3195 002c 38000000 		.4byte	.LFE5
 3196 0030 00000000 		.4byte	.LFB6
 3197 0034 18000000 		.4byte	.LFE6
 3198 0038 00000000 		.4byte	.LFB7
 3199 003c 34000000 		.4byte	.LFE7
 3200 0040 00000000 		.4byte	.LFB8
 3201 0044 24000000 		.4byte	.LFE8
 3202 0048 00000000 		.4byte	.LFB9
 3203 004c 2C000000 		.4byte	.LFE9
 3204 0050 00000000 		.4byte	.LFB10
 3205 0054 60000000 		.4byte	.LFE10
 3206 0058 00000000 		.4byte	.LFB11
 3207 005c F8000000 		.4byte	.LFE11
 3208 0060 00000000 		.4byte	.LFB12
 3209 0064 8C000000 		.4byte	.LFE12
 3210 0068 00000000 		.4byte	.LFB13
 3211 006c 54000000 		.4byte	.LFE13
 3212 0070 00000000 		.4byte	.LFB14
 3213 0074 30000000 		.4byte	.LFE14
 3214 0078 00000000 		.4byte	.LFB15
 3215 007c 20000000 		.4byte	.LFE15
 3216 0080 00000000 		.4byte	.LFB16
 3217 0084 40000000 		.4byte	.LFE16
 3218 0088 00000000 		.4byte	.LFB17
 3219 008c 40000000 		.4byte	.LFE17
 3220 0090 00000000 		.4byte	.LFB18
 3221 0094 30000000 		.4byte	.LFE18
 3222 0098 00000000 		.4byte	.LFB19
 3223 009c 20000000 		.4byte	.LFE19
 3224 00a0 00000000 		.4byte	.LFB20
 3225 00a4 18000000 		.4byte	.LFE20
 3226 00a8 00000000 		.4byte	.LFB21
 3227 00ac 18000000 		.4byte	.LFE21
 3228 00b0 00000000 		.4byte	0
 3229 00b4 00000000 		.4byte	0
ARM GAS  C:\Users\214016~1\AppData\Local\Temp\ccpUOjiz.s 			page 102


 3230              		.section	.debug_line,"",%progbits
 3231              	.Ldebug_line0:
 3232 0000 F2020000 		.section	.debug_str,"MS",%progbits,1
 3232      02005600 
 3232      00000201 
 3232      FB0E0D00 
 3232      01010101 
 3233              	.LASF10:
 3234 0000 75696E74 		.ascii	"uint16\000"
 3234      313600
 3235              	.LASF50:
 3236 0007 5553425F 		.ascii	"USB_InitComponent\000"
 3236      496E6974 
 3236      436F6D70 
 3236      6F6E656E 
 3236      7400
 3237              	.LASF67:
 3238 0019 5553425F 		.ascii	"USB_DisableOutEP\000"
 3238      44697361 
 3238      626C654F 
 3238      75744550 
 3238      00
 3239              	.LASF83:
 3240 002a 5553425F 		.ascii	"USB_configuration\000"
 3240      636F6E66 
 3240      69677572 
 3240      6174696F 
 3240      6E00
 3241              	.LASF90:
 3242 003c 5553425F 		.ascii	"USB_lastPacketSize\000"
 3242      6C617374 
 3242      5061636B 
 3242      65745369 
 3242      7A6500
 3243              	.LASF82:
 3244 004f 5553425F 		.ascii	"USB_transferState\000"
 3244      7472616E 
 3244      73666572 
 3244      53746174 
 3244      6500
 3245              	.LASF7:
 3246 0061 6C6F6E67 		.ascii	"long long unsigned int\000"
 3246      206C6F6E 
 3246      6720756E 
 3246      7369676E 
 3246      65642069 
 3247              	.LASF22:
 3248 0078 61646472 		.ascii	"addr\000"
 3248      00
 3249              	.LASF32:
 3250 007d 65704366 		.ascii	"epCfg\000"
 3250      6700
 3251              	.LASF87:
 3252 0083 5553425F 		.ascii	"USB_interfaceSetting\000"
 3252      696E7465 
 3252      72666163 
 3252      65536574 
ARM GAS  C:\Users\214016~1\AppData\Local\Temp\ccpUOjiz.s 			page 103


 3252      74696E67 
 3253              	.LASF27:
 3254 0098 545F5553 		.ascii	"T_USB_EP_CTL_BLOCK\000"
 3254      425F4550 
 3254      5F43544C 
 3254      5F424C4F 
 3254      434B00
 3255              	.LASF78:
 3256 00ab 5553425F 		.ascii	"USB_EnableSofInt\000"
 3256      456E6162 
 3256      6C65536F 
 3256      66496E74 
 3256      00
 3257              	.LASF59:
 3258 00bc 65704E75 		.ascii	"epNumber\000"
 3258      6D626572 
 3258      00
 3259              	.LASF51:
 3260 00c5 5553425F 		.ascii	"USB_Stop\000"
 3260      53746F70 
 3260      00
 3261              	.LASF46:
 3262 00ce 64657669 		.ascii	"device\000"
 3262      636500
 3263              	.LASF6:
 3264 00d5 6C6F6E67 		.ascii	"long long int\000"
 3264      206C6F6E 
 3264      6720696E 
 3264      7400
 3265              	.LASF0:
 3266 00e3 7369676E 		.ascii	"signed char\000"
 3266      65642063 
 3266      68617200 
 3267              	.LASF66:
 3268 00ef 5553425F 		.ascii	"USB_EnableOutEP\000"
 3268      456E6162 
 3268      6C654F75 
 3268      74455000 
 3269              	.LASF73:
 3270 00ff 5553425F 		.ascii	"USB_RWUEnabled\000"
 3270      52575545 
 3270      6E61626C 
 3270      656400
 3271              	.LASF61:
 3272 010e 636E7472 		.ascii	"cntr\000"
 3272      00
 3273              	.LASF4:
 3274 0113 6C6F6E67 		.ascii	"long int\000"
 3274      20696E74 
 3274      00
 3275              	.LASF76:
 3276 011c 5553425F 		.ascii	"USB_GetDeviceAddress\000"
 3276      47657444 
 3276      65766963 
 3276      65416464 
 3276      72657373 
 3277              	.LASF92:
ARM GAS  C:\Users\214016~1\AppData\Local\Temp\ccpUOjiz.s 			page 104


 3278 0131 47656E65 		.ascii	"Generated_Source\\PSoC5\\USB.c\000"
 3278      72617465 
 3278      645F536F 
 3278      75726365 
 3278      5C50536F 
 3279              	.LASF9:
 3280 014e 75696E74 		.ascii	"uint8\000"
 3280      3800
 3281              	.LASF21:
 3282 0154 6570546F 		.ascii	"epToggle\000"
 3282      67676C65 
 3282      00
 3283              	.LASF36:
 3284 015d 72775761 		.ascii	"rwWa\000"
 3284      00
 3285              	.LASF13:
 3286 0162 646F7562 		.ascii	"double\000"
 3286      6C6500
 3287              	.LASF72:
 3288 0169 706F7765 		.ascii	"powerStatus\000"
 3288      72537461 
 3288      74757300 
 3289              	.LASF34:
 3290 0175 65705372 		.ascii	"epSr\000"
 3290      00
 3291              	.LASF11:
 3292 017a 75696E74 		.ascii	"uint32\000"
 3292      333200
 3293              	.LASF86:
 3294 0181 5553425F 		.ascii	"USB_interfaceNumber\000"
 3294      696E7465 
 3294      72666163 
 3294      654E756D 
 3294      62657200 
 3295              	.LASF63:
 3296 0195 70446174 		.ascii	"pData\000"
 3296      6100
 3297              	.LASF23:
 3298 019b 65704D6F 		.ascii	"epMode\000"
 3298      646500
 3299              	.LASF35:
 3300 01a2 72657365 		.ascii	"reserved\000"
 3300      72766564 
 3300      00
 3301              	.LASF70:
 3302 01ab 5553425F 		.ascii	"USB_GetEPAckState\000"
 3302      47657445 
 3302      5041636B 
 3302      53746174 
 3302      6500
 3303              	.LASF8:
 3304 01bd 756E7369 		.ascii	"unsigned int\000"
 3304      676E6564 
 3304      20696E74 
 3304      00
 3305              	.LASF5:
 3306 01ca 6C6F6E67 		.ascii	"long unsigned int\000"
ARM GAS  C:\Users\214016~1\AppData\Local\Temp\ccpUOjiz.s 			page 105


 3306      20756E73 
 3306      69676E65 
 3306      6420696E 
 3306      7400
 3307              	.LASF79:
 3308 01dc 5553425F 		.ascii	"USB_DisableSofInt\000"
 3308      44697361 
 3308      626C6553 
 3308      6F66496E 
 3308      7400
 3309              	.LASF3:
 3310 01ee 73686F72 		.ascii	"short unsigned int\000"
 3310      7420756E 
 3310      7369676E 
 3310      65642069 
 3310      6E7400
 3311              	.LASF48:
 3312 0201 5553425F 		.ascii	"USB_Start\000"
 3312      53746172 
 3312      7400
 3313              	.LASF44:
 3314 020b 61726245 		.ascii	"arbEp\000"
 3314      7000
 3315              	.LASF26:
 3316 0211 696E7465 		.ascii	"interface\000"
 3316      72666163 
 3316      6500
 3317              	.LASF53:
 3318 021b 63723152 		.ascii	"cr1Reg\000"
 3318      656700
 3319              	.LASF16:
 3320 0222 72656733 		.ascii	"reg32\000"
 3320      3200
 3321              	.LASF85:
 3322 0228 5553425F 		.ascii	"USB_deviceStatus\000"
 3322      64657669 
 3322      63655374 
 3322      61747573 
 3322      00
 3323              	.LASF43:
 3324 0239 5553425F 		.ascii	"USB_sie_eps_struct\000"
 3324      7369655F 
 3324      6570735F 
 3324      73747275 
 3324      637400
 3325              	.LASF45:
 3326 024c 5553425F 		.ascii	"USB_arb_eps_struct\000"
 3326      6172625F 
 3326      6570735F 
 3326      73747275 
 3326      637400
 3327              	.LASF20:
 3328 025f 68774570 		.ascii	"hwEpState\000"
 3328      53746174 
 3328      6500
 3329              	.LASF17:
 3330 0269 73697A65 		.ascii	"sizetype\000"
ARM GAS  C:\Users\214016~1\AppData\Local\Temp\ccpUOjiz.s 			page 106


 3330      74797065 
 3330      00
 3331              	.LASF42:
 3332 0272 73696545 		.ascii	"sieEp\000"
 3332      7000
 3333              	.LASF18:
 3334 0278 61747472 		.ascii	"attrib\000"
 3334      696200
 3335              	.LASF49:
 3336 027f 5553425F 		.ascii	"USB_Init\000"
 3336      496E6974 
 3336      00
 3337              	.LASF71:
 3338 0288 5553425F 		.ascii	"USB_SetPowerStatus\000"
 3338      53657450 
 3338      6F776572 
 3338      53746174 
 3338      757300
 3339              	.LASF81:
 3340 029b 5553425F 		.ascii	"USB_device\000"
 3340      64657669 
 3340      636500
 3341              	.LASF91:
 3342 02a6 474E5520 		.ascii	"GNU C 4.9.3 20150303 (release) [ARM/embedded-4_9-br"
 3342      4320342E 
 3342      392E3320 
 3342      32303135 
 3342      30333033 
 3343 02d9 616E6368 		.ascii	"anch revision 221220] -mcpu=cortex-m3 -mthumb -g -O"
 3343      20726576 
 3343      6973696F 
 3343      6E203232 
 3343      31323230 
 3344 030c 30202D66 		.ascii	"0 -ffunction-sections -ffat-lto-objects\000"
 3344      66756E63 
 3344      74696F6E 
 3344      2D736563 
 3344      74696F6E 
 3345              	.LASF39:
 3346 0334 72775261 		.ascii	"rwRaMsb\000"
 3346      4D736200 
 3347              	.LASF62:
 3348 033c 5553425F 		.ascii	"USB_LoadInEP\000"
 3348      4C6F6164 
 3348      496E4550 
 3348      00
 3349              	.LASF28:
 3350 0349 6570436E 		.ascii	"epCnt0\000"
 3350      743000
 3351              	.LASF29:
 3352 0350 6570436E 		.ascii	"epCnt1\000"
 3352      743100
 3353              	.LASF89:
 3354 0357 5553425F 		.ascii	"USB_EP\000"
 3354      455000
 3355              	.LASF30:
 3356 035e 65704372 		.ascii	"epCr0\000"
ARM GAS  C:\Users\214016~1\AppData\Local\Temp\ccpUOjiz.s 			page 107


 3356      3000
 3357              	.LASF12:
 3358 0364 666C6F61 		.ascii	"float\000"
 3358      7400
 3359              	.LASF19:
 3360 036a 61706945 		.ascii	"apiEpState\000"
 3360      70537461 
 3360      746500
 3361              	.LASF88:
 3362 0375 5553425F 		.ascii	"USB_deviceAddress\000"
 3362      64657669 
 3362      63654164 
 3362      64726573 
 3362      7300
 3363              	.LASF75:
 3364 0387 5553425F 		.ascii	"USB_GetConfiguration\000"
 3364      47657443 
 3364      6F6E6669 
 3364      67757261 
 3364      74696F6E 
 3365              	.LASF41:
 3366 039c 5553425F 		.ascii	"USB_arb_ep_struct\000"
 3366      6172625F 
 3366      65705F73 
 3366      74727563 
 3366      7400
 3367              	.LASF15:
 3368 03ae 72656738 		.ascii	"reg8\000"
 3368      00
 3369              	.LASF54:
 3370 03b3 5553425F 		.ascii	"USB_CheckActivity\000"
 3370      43686563 
 3370      6B416374 
 3370      69766974 
 3370      7900
 3371              	.LASF1:
 3372 03c5 756E7369 		.ascii	"unsigned char\000"
 3372      676E6564 
 3372      20636861 
 3372      7200
 3373              	.LASF56:
 3374 03d3 5553425F 		.ascii	"USB_GetInterfaceSetting\000"
 3374      47657449 
 3374      6E746572 
 3374      66616365 
 3374      53657474 
 3375              	.LASF2:
 3376 03eb 73686F72 		.ascii	"short int\000"
 3376      7420696E 
 3376      7400
 3377              	.LASF77:
 3378 03f5 5553425F 		.ascii	"USB_ReInitComponent\000"
 3378      5265496E 
 3378      6974436F 
 3378      6D706F6E 
 3378      656E7400 
 3379              	.LASF80:
ARM GAS  C:\Users\214016~1\AppData\Local\Temp\ccpUOjiz.s 			page 108


 3380 0409 5553425F 		.ascii	"USB_initVar\000"
 3380      696E6974 
 3380      56617200 
 3381              	.LASF65:
 3382 0415 5553425F 		.ascii	"USB_ReadOutEP\000"
 3382      52656164 
 3382      4F757445 
 3382      5000
 3383              	.LASF38:
 3384 0423 72775261 		.ascii	"rwRa\000"
 3384      00
 3385              	.LASF37:
 3386 0428 72775761 		.ascii	"rwWaMsb\000"
 3386      4D736200 
 3387              	.LASF55:
 3388 0430 5553425F 		.ascii	"USB_IsConfigurationChanged\000"
 3388      4973436F 
 3388      6E666967 
 3388      75726174 
 3388      696F6E43 
 3389              	.LASF68:
 3390 044b 5553425F 		.ascii	"USB_Force\000"
 3390      466F7263 
 3390      6500
 3391              	.LASF69:
 3392 0455 62537461 		.ascii	"bState\000"
 3392      746500
 3393              	.LASF64:
 3394 045c 6C656E67 		.ascii	"length\000"
 3394      746800
 3395              	.LASF14:
 3396 0463 63686172 		.ascii	"char\000"
 3396      00
 3397              	.LASF47:
 3398 0468 6D6F6465 		.ascii	"mode\000"
 3398      00
 3399              	.LASF25:
 3400 046d 62756666 		.ascii	"bufferSize\000"
 3400      65725369 
 3400      7A6500
 3401              	.LASF24:
 3402 0478 62756666 		.ascii	"buffOffset\000"
 3402      4F666673 
 3402      657400
 3403              	.LASF93:
 3404 0483 433A5C55 		.ascii	"C:\\Users\\214016586\\Documents\\GitHub\\Crumar-Acc"
 3404      73657273 
 3404      5C323134 
 3404      30313635 
 3404      38365C44 
 3405 04b1 6F646572 		.ascii	"oder-Midi\\Accoder_MIDI.cydsn\000"
 3405      2D4D6964 
 3405      695C4163 
 3405      636F6465 
 3405      725F4D49 
 3406              	.LASF57:
 3407 04ce 696E7465 		.ascii	"interfaceNumber\000"
ARM GAS  C:\Users\214016~1\AppData\Local\Temp\ccpUOjiz.s 			page 109


 3407      72666163 
 3407      654E756D 
 3407      62657200 
 3408              	.LASF58:
 3409 04de 5553425F 		.ascii	"USB_GetEPState\000"
 3409      47657445 
 3409      50537461 
 3409      746500
 3410              	.LASF31:
 3411 04ed 5553425F 		.ascii	"USB_sie_ep_struct\000"
 3411      7369655F 
 3411      65705F73 
 3411      74727563 
 3411      7400
 3412              	.LASF52:
 3413 04ff 656E6162 		.ascii	"enableInterrupts\000"
 3413      6C65496E 
 3413      74657272 
 3413      75707473 
 3413      00
 3414              	.LASF40:
 3415 0510 72774472 		.ascii	"rwDr\000"
 3415      00
 3416              	.LASF33:
 3417 0515 6570496E 		.ascii	"epIntEn\000"
 3417      74456E00 
 3418              	.LASF60:
 3419 051d 5553425F 		.ascii	"USB_GetEPCount\000"
 3419      47657445 
 3419      50436F75 
 3419      6E7400
 3420              	.LASF84:
 3421 052c 5553425F 		.ascii	"USB_configurationChanged\000"
 3421      636F6E66 
 3421      69677572 
 3421      6174696F 
 3421      6E436861 
 3422              	.LASF74:
 3423 0545 72657375 		.ascii	"result\000"
 3423      6C7400
 3424              		.ident	"GCC: (GNU Tools for ARM Embedded Processors) 4.9.3 20150303 (release) [ARM/embedded-4_9-br
